
objs/l1/l2/l3//mic-receive.elf:     file format elf32-littlearm


Disassembly of section .text:

00008000 <__code_start__>:
    8000:	ee110f50 	mrc	15, 0, r0, cr1, cr0, {2}
    8004:	e3800603 	orr	r0, r0, #3145728	; 0x300000
    8008:	e3800503 	orr	r0, r0, #12582912	; 0xc00000
    800c:	ee010f50 	mcr	15, 0, r0, cr1, cr0, {2}
    8010:	e3a00101 	mov	r0, #1073741824	; 0x40000000
    8014:	eee80a10 	vmsr	fpexc, r0
    8018:	e3a00013 	mov	r0, #19, 0
    801c:	e3800080 	orr	r0, r0, #128, 0	; 0x80
    8020:	e129f000 	msr	CPSR_fc, r0
    8024:	e3a01000 	mov	r1, #0, 0
    8028:	ee071f95 	mcr	15, 0, r1, cr7, cr5, {4}
    802c:	e3a0d302 	mov	sp, #134217728	; 0x8000000
    8030:	e3a0b000 	mov	fp, #0, 0
    8034:	eb000a46 	bl	a954 <_cstart>
    8038:	eb000a59 	bl	a9a4 <rpi_reboot>

0000803c <PUT32>:
    803c:	e5801000 	str	r1, [r0]
    8040:	e12fff1e 	bx	lr

00008044 <GET32>:
    8044:	e5900000 	ldr	r0, [r0]
    8048:	e12fff1e 	bx	lr

0000804c <BRANCHTO>:
    804c:	e12fff10 	bx	r0

00008050 <print_debug>:
    8050:	e92d41f0 	push	{r4, r5, r6, r7, r8, lr}
    8054:	e24dd028 	sub	sp, sp, #40, 0	; 0x28
    8058:	e1a06000 	mov	r6, r0
    805c:	e1a05001 	mov	r5, r1
    8060:	e1a07002 	mov	r7, r2
    8064:	e1a08003 	mov	r8, r3
    8068:	e59f2128 	ldr	r2, [pc, #296]	; 8198 <print_debug+0x148>
    806c:	e59f3128 	ldr	r3, [pc, #296]	; 819c <print_debug+0x14c>
    8070:	e1cd20f0 	strd	r2, [sp]
    8074:	ec532b10 	vmov	r2, r3, d0
    8078:	e59f0120 	ldr	r0, [pc, #288]	; 81a0 <print_debug+0x150>
    807c:	eb00086b 	bl	a230 <printk>
    8080:	e3a04000 	mov	r4, #0, 0
    8084:	ea000009 	b	80b0 <print_debug+0x60>
    8088:	e59f1114 	ldr	r1, [pc, #276]	; 81a4 <print_debug+0x154>
    808c:	e58d1018 	str	r1, [sp, #24]
    8090:	ed8d5b04 	vstr	d5, [sp, #16]
    8094:	ed8d6b02 	vstr	d6, [sp, #8]
    8098:	e1cd20f0 	strd	r2, [sp]
    809c:	ee172a10 	vmov	r2, s14
    80a0:	e1a01004 	mov	r1, r4
    80a4:	e59f00fc 	ldr	r0, [pc, #252]	; 81a8 <print_debug+0x158>
    80a8:	eb000860 	bl	a230 <printk>
    80ac:	e2844001 	add	r4, r4, #1, 0
    80b0:	e3540007 	cmp	r4, #7, 0
    80b4:	8a000014 	bhi	810c <print_debug+0xbc>
    80b8:	e1a0c184 	lsl	ip, r4, #3
    80bc:	e0853184 	add	r3, r5, r4, lsl #3
    80c0:	ed935b00 	vldr	d5, [r3]
    80c4:	e59f30e0 	ldr	r3, [pc, #224]	; 81ac <print_debug+0x15c>
    80c8:	e0833184 	add	r3, r3, r4, lsl #3
    80cc:	ed936b00 	vldr	d6, [r3]
    80d0:	e28c3009 	add	r3, ip, #9, 0
    80d4:	ee073a10 	vmov	s14, r3
    80d8:	eeb87b47 	vcvt.f64.u32	d7, s14
    80dc:	ed9f4b29 	vldr	d4, [pc, #164]	; 8188 <print_debug+0x138>
    80e0:	ee277b04 	vmul.f64	d7, d7, d4
    80e4:	ed9f4b29 	vldr	d4, [pc, #164]	; 8190 <print_debug+0x140>
    80e8:	ee277b04 	vmul.f64	d7, d7, d4
    80ec:	eebd7bc7 	vcvt.s32.f64	s14, d7
    80f0:	e086c00c 	add	ip, r6, ip
    80f4:	e1cc20d0 	ldrd	r2, [ip]
    80f8:	eeb45bc6 	vcmpe.f64	d5, d6
    80fc:	eef1fa10 	vmrs	APSR_nzcv, fpscr
    8100:	daffffe0 	ble	8088 <print_debug+0x38>
    8104:	e59f10a4 	ldr	r1, [pc, #164]	; 81b0 <print_debug+0x160>
    8108:	eaffffdf 	b	808c <print_debug+0x3c>
    810c:	e3a03000 	mov	r3, #0, 0
    8110:	e3530000 	cmp	r3, #0, 0
    8114:	0a000006 	beq	8134 <print_debug+0xe4>
    8118:	e3a03000 	mov	r3, #0, 0
    811c:	e3530000 	cmp	r3, #0, 0
    8120:	0a000009 	beq	814c <print_debug+0xfc>
    8124:	e1570008 	cmp	r7, r8
    8128:	1a00000d 	bne	8164 <print_debug+0x114>
    812c:	e28dd028 	add	sp, sp, #40, 0	; 0x28
    8130:	e8bd81f0 	pop	{r4, r5, r6, r7, r8, pc}
    8134:	e1a02183 	lsl	r2, r3, #3
    8138:	e1a02237 	lsr	r2, r7, r2
    813c:	e28d1024 	add	r1, sp, #36, 0	; 0x24
    8140:	e7c12003 	strb	r2, [r1, r3]
    8144:	e2833001 	add	r3, r3, #1, 0
    8148:	eafffff0 	b	8110 <print_debug+0xc0>
    814c:	e1a02183 	lsl	r2, r3, #3
    8150:	e1a02238 	lsr	r2, r8, r2
    8154:	e28d1020 	add	r1, sp, #32, 0
    8158:	e7c12003 	strb	r2, [r1, r3]
    815c:	e2833001 	add	r3, r3, #1, 0
    8160:	eaffffed 	b	811c <print_debug+0xcc>
    8164:	e5dd3020 	ldrb	r3, [sp, #32]
    8168:	e58d3000 	str	r3, [sp]
    816c:	e1a03008 	mov	r3, r8
    8170:	e5dd2024 	ldrb	r2, [sp, #36]	; 0x24
    8174:	e1a01007 	mov	r1, r7
    8178:	e59f0034 	ldr	r0, [pc, #52]	; 81b4 <print_debug+0x164>
    817c:	eb00082b 	bl	a230 <printk>
    8180:	eaffffe9 	b	812c <print_debug+0xdc>
    8184:	e320f000 	nop	{0}
    8188:	00000000 	.word	0x00000000
    818c:	40eccf00 	.word	0x40eccf00
    8190:	00000000 	.word	0x00000000
    8194:	3f600000 	.word	0x3f600000
    8198:	d2f1a9fc 	.word	0xd2f1a9fc
    819c:	3f50624d 	.word	0x3f50624d
    81a0:	0000afd8 	.word	0x0000afd8
    81a4:	0000afd0 	.word	0x0000afd0
    81a8:	0000aff4 	.word	0x0000aff4
    81ac:	0000b5d0 	.word	0x0000b5d0
    81b0:	0000afd4 	.word	0x0000afd4
    81b4:	0000b028 	.word	0x0000b028

000081b8 <signal_variance>:
    81b8:	e92d4070 	push	{r4, r5, r6, lr}
    81bc:	ed2d8b02 	vpush	{d8}
    81c0:	e1a05000 	mov	r5, r0
    81c4:	e3a04000 	mov	r4, #0, 0
    81c8:	ed9f8b1e 	vldr	d8, [pc, #120]	; 8248 <signal_variance+0x90>
    81cc:	e1540005 	cmp	r4, r5
    81d0:	aa00000a 	bge	8200 <signal_variance+0x48>
    81d4:	eb0002f4 	bl	8dac <i2s_get32>
    81d8:	ee070a10 	vmov	s14, r0
    81dc:	eeb87bc7 	vcvt.f64.s32	d7, s14
    81e0:	ed9f6b1a 	vldr	d6, [pc, #104]	; 8250 <signal_variance+0x98>
    81e4:	ee277b06 	vmul.f64	d7, d7, d6
    81e8:	e59f3068 	ldr	r3, [pc, #104]	; 8258 <signal_variance+0xa0>
    81ec:	e0833184 	add	r3, r3, r4, lsl #3
    81f0:	ed837b00 	vstr	d7, [r3]
    81f4:	ee388b07 	vadd.f64	d8, d8, d7
    81f8:	e2844001 	add	r4, r4, #1, 0
    81fc:	eafffff2 	b	81cc <signal_variance+0x14>
    8200:	ee075a90 	vmov	s15, r5
    8204:	eeb80be7 	vcvt.f64.s32	d0, s15
    8208:	ee885b00 	vdiv.f64	d5, d8, d0
    820c:	e3a03000 	mov	r3, #0, 0
    8210:	ed9f6b0c 	vldr	d6, [pc, #48]	; 8248 <signal_variance+0x90>
    8214:	ea000005 	b	8230 <signal_variance+0x78>
    8218:	e59f2038 	ldr	r2, [pc, #56]	; 8258 <signal_variance+0xa0>
    821c:	e0822183 	add	r2, r2, r3, lsl #3
    8220:	ed927b00 	vldr	d7, [r2]
    8224:	ee377b45 	vsub.f64	d7, d7, d5
    8228:	ee076b07 	vmla.f64	d6, d7, d7
    822c:	e2833001 	add	r3, r3, #1, 0
    8230:	e1530005 	cmp	r3, r5
    8234:	bafffff7 	blt	8218 <signal_variance+0x60>
    8238:	ee860b00 	vdiv.f64	d0, d6, d0
    823c:	ecbd8b02 	vpop	{d8}
    8240:	e8bd8070 	pop	{r4, r5, r6, pc}
    8244:	e320f000 	nop	{0}
	...
    8254:	3e000000 	.word	0x3e000000
    8258:	0000c610 	.word	0x0000c610

0000825c <read_symbol>:
    825c:	e92d4010 	push	{r4, lr}
    8260:	e3a04000 	mov	r4, #0, 0
    8264:	e3540b01 	cmp	r4, #1024	; 0x400
    8268:	aa000009 	bge	8294 <read_symbol+0x38>
    826c:	eb0002ce 	bl	8dac <i2s_get32>
    8270:	ee070a10 	vmov	s14, r0
    8274:	eeb87bc7 	vcvt.f64.s32	d7, s14
    8278:	ed9f6b28 	vldr	d6, [pc, #160]	; 8320 <read_symbol+0xc4>
    827c:	ee277b06 	vmul.f64	d7, d7, d6
    8280:	e59f30b0 	ldr	r3, [pc, #176]	; 8338 <read_symbol+0xdc>
    8284:	e0833184 	add	r3, r3, r4, lsl #3
    8288:	ed837b00 	vstr	d7, [r3]
    828c:	e2844001 	add	r4, r4, #1, 0
    8290:	eafffff3 	b	8264 <read_symbol+0x8>
    8294:	e3a03000 	mov	r3, #0, 0
    8298:	e3530c02 	cmp	r3, #512	; 0x200
    829c:	aa000008 	bge	82c4 <read_symbol+0x68>
    82a0:	e2831c01 	add	r1, r3, #256	; 0x100
    82a4:	e59f208c 	ldr	r2, [pc, #140]	; 8338 <read_symbol+0xdc>
    82a8:	e0822181 	add	r2, r2, r1, lsl #3
    82ac:	e1c200d0 	ldrd	r0, [r2]
    82b0:	e59f2084 	ldr	r2, [pc, #132]	; 833c <read_symbol+0xe0>
    82b4:	e0822183 	add	r2, r2, r3, lsl #3
    82b8:	e1c200f0 	strd	r0, [r2]
    82bc:	e2833001 	add	r3, r3, #1, 0
    82c0:	eafffff4 	b	8298 <read_symbol+0x3c>
    82c4:	e3a03000 	mov	r3, #0, 0
    82c8:	ed9f7b16 	vldr	d7, [pc, #88]	; 8328 <read_symbol+0xcc>
    82cc:	e3530c02 	cmp	r3, #512	; 0x200
    82d0:	aa000005 	bge	82ec <read_symbol+0x90>
    82d4:	e59f2060 	ldr	r2, [pc, #96]	; 833c <read_symbol+0xe0>
    82d8:	e0822183 	add	r2, r2, r3, lsl #3
    82dc:	ed926b00 	vldr	d6, [r2]
    82e0:	ee377b06 	vadd.f64	d7, d7, d6
    82e4:	e2833001 	add	r3, r3, #1, 0
    82e8:	eafffff7 	b	82cc <read_symbol+0x70>
    82ec:	ed9f6b0f 	vldr	d6, [pc, #60]	; 8330 <read_symbol+0xd4>
    82f0:	ee276b06 	vmul.f64	d6, d7, d6
    82f4:	e3a02000 	mov	r2, #0, 0
    82f8:	e3520c02 	cmp	r2, #512	; 0x200
    82fc:	a8bd8010 	popge	{r4, pc}
    8300:	e59f3034 	ldr	r3, [pc, #52]	; 833c <read_symbol+0xe0>
    8304:	e0833182 	add	r3, r3, r2, lsl #3
    8308:	ed937b00 	vldr	d7, [r3]
    830c:	ee377b46 	vsub.f64	d7, d7, d6
    8310:	ed837b00 	vstr	d7, [r3]
    8314:	e2822001 	add	r2, r2, #1, 0
    8318:	eafffff6 	b	82f8 <read_symbol+0x9c>
    831c:	e320f000 	nop	{0}
    8320:	00000000 	.word	0x00000000
    8324:	3e000000 	.word	0x3e000000
	...
    8334:	3f600000 	.word	0x3f600000
    8338:	0000c610 	.word	0x0000c610
    833c:	0000b610 	.word	0x0000b610

00008340 <goertzel>:
    8340:	e92d4070 	push	{r4, r5, r6, lr}
    8344:	e1a05000 	mov	r5, r0
    8348:	e1a04001 	mov	r4, r1
    834c:	ee071a90 	vmov	s15, r1
    8350:	eeb86be7 	vcvt.f64.s32	d6, s15
    8354:	ee260b00 	vmul.f64	d0, d6, d0
    8358:	ed9f5b1e 	vldr	d5, [pc, #120]	; 83d8 <goertzel+0x98>
    835c:	ee807b05 	vdiv.f64	d7, d0, d5
    8360:	ed9f5b1e 	vldr	d5, [pc, #120]	; 83e0 <goertzel+0xa0>
    8364:	ee377b05 	vadd.f64	d7, d7, d5
    8368:	eebd7bc7 	vcvt.s32.f64	s14, d7
    836c:	eeb87bc7 	vcvt.f64.s32	d7, s14
    8370:	ed9f5b1c 	vldr	d5, [pc, #112]	; 83e8 <goertzel+0xa8>
    8374:	ee277b05 	vmul.f64	d7, d7, d5
    8378:	ee877b06 	vdiv.f64	d7, d7, d6
    837c:	ec510b17 	vmov	r0, r1, d7
    8380:	eb0002bd 	bl	8e7c <cos>
    8384:	ec410b14 	vmov	d4, r0, r1
    8388:	ee344b04 	vadd.f64	d4, d4, d4
    838c:	e3a03000 	mov	r3, #0, 0
    8390:	ed9f5b16 	vldr	d5, [pc, #88]	; 83f0 <goertzel+0xb0>
    8394:	eeb06b45 	vmov.f64	d6, d5
    8398:	e1530004 	cmp	r3, r4
    839c:	aa000007 	bge	83c0 <goertzel+0x80>
    83a0:	e0852183 	add	r2, r5, r3, lsl #3
    83a4:	ed927b00 	vldr	d7, [r2]
    83a8:	ee067b04 	vmla.f64	d7, d6, d4
    83ac:	ee377b45 	vsub.f64	d7, d7, d5
    83b0:	e2833001 	add	r3, r3, #1, 0
    83b4:	eeb05b46 	vmov.f64	d5, d6
    83b8:	eeb06b47 	vmov.f64	d6, d7
    83bc:	eafffff5 	b	8398 <goertzel+0x58>
    83c0:	ee250b05 	vmul.f64	d0, d5, d5
    83c4:	ee060b06 	vmla.f64	d0, d6, d6
    83c8:	ee266b04 	vmul.f64	d6, d6, d4
    83cc:	ee060b45 	vmls.f64	d0, d6, d5
    83d0:	e8bd8070 	pop	{r4, r5, r6, pc}
    83d4:	e320f000 	nop	{0}
    83d8:	00000000 	.word	0x00000000
    83dc:	40eccf00 	.word	0x40eccf00
    83e0:	00000000 	.word	0x00000000
    83e4:	3fe00000 	.word	0x3fe00000
    83e8:	54442d18 	.word	0x54442d18
    83ec:	401921fb 	.word	0x401921fb
	...

000083f8 <get_magnitudes>:
    83f8:	e92d4070 	push	{r4, r5, r6, lr}
    83fc:	e1a06000 	mov	r6, r0
    8400:	e3a05000 	mov	r5, #0, 0
    8404:	ea00000f 	b	8448 <get_magnitudes+0x50>
    8408:	e1a04185 	lsl	r4, r5, #3
    840c:	e2843009 	add	r3, r4, #9, 0
    8410:	ee073a10 	vmov	s14, r3
    8414:	eeb87b47 	vcvt.f64.u32	d7, s14
    8418:	ed9f0b0e 	vldr	d0, [pc, #56]	; 8458 <get_magnitudes+0x60>
    841c:	ee277b00 	vmul.f64	d7, d7, d0
    8420:	ed9f0b0e 	vldr	d0, [pc, #56]	; 8460 <get_magnitudes+0x68>
    8424:	ee270b00 	vmul.f64	d0, d7, d0
    8428:	e3a01c02 	mov	r1, #512	; 0x200
    842c:	e59f0034 	ldr	r0, [pc, #52]	; 8468 <get_magnitudes+0x70>
    8430:	ebffffc2 	bl	8340 <goertzel>
    8434:	ec510b10 	vmov	r0, r1, d0
    8438:	e0864004 	add	r4, r6, r4
    843c:	eb0006e1 	bl	9fc8 <sqrt>
    8440:	e1c400f0 	strd	r0, [r4]
    8444:	e2855001 	add	r5, r5, #1, 0
    8448:	e3550007 	cmp	r5, #7, 0
    844c:	9affffed 	bls	8408 <get_magnitudes+0x10>
    8450:	e8bd8070 	pop	{r4, r5, r6, pc}
    8454:	e320f000 	nop	{0}
    8458:	00000000 	.word	0x00000000
    845c:	40eccf00 	.word	0x40eccf00
    8460:	00000000 	.word	0x00000000
    8464:	3f600000 	.word	0x3f600000
    8468:	0000b610 	.word	0x0000b610

0000846c <calibrate_thresholds>:
    846c:	e92d4010 	push	{r4, lr}
    8470:	e24dd040 	sub	sp, sp, #64, 0	; 0x40
    8474:	e1a04000 	mov	r4, r0
    8478:	ebffff77 	bl	825c <read_symbol>
    847c:	e1a0000d 	mov	r0, sp
    8480:	ebffffdc 	bl	83f8 <get_magnitudes>
    8484:	e3a03000 	mov	r3, #0, 0
    8488:	ea000000 	b	8490 <calibrate_thresholds+0x24>
    848c:	e2833001 	add	r3, r3, #1, 0
    8490:	e3530007 	cmp	r3, #7, 0
    8494:	8a00000b 	bhi	84c8 <calibrate_thresholds+0x5c>
    8498:	e28d2040 	add	r2, sp, #64, 0	; 0x40
    849c:	e0822183 	add	r2, r2, r3, lsl #3
    84a0:	ed126b10 	vldr	d6, [r2, #-64]	; 0xffffffc0
    84a4:	ed9f7b09 	vldr	d7, [pc, #36]	; 84d0 <calibrate_thresholds+0x64>
    84a8:	ee267b07 	vmul.f64	d7, d6, d7
    84ac:	e59f2024 	ldr	r2, [pc, #36]	; 84d8 <calibrate_thresholds+0x6c>
    84b0:	e0822183 	add	r2, r2, r3, lsl #3
    84b4:	ed827b00 	vstr	d7, [r2]
    84b8:	e3540000 	cmp	r4, #0, 0
    84bc:	10842183 	addne	r2, r4, r3, lsl #3
    84c0:	1d826b00 	vstrne	d6, [r2]
    84c4:	eafffff0 	b	848c <calibrate_thresholds+0x20>
    84c8:	e28dd040 	add	sp, sp, #64, 0	; 0x40
    84cc:	e8bd8010 	pop	{r4, pc}
    84d0:	66666666 	.word	0x66666666
    84d4:	3fd66666 	.word	0x3fd66666
    84d8:	0000b5d0 	.word	0x0000b5d0

000084dc <detect_mask>:
    84dc:	e92d40d0 	push	{r4, r6, r7, lr}
    84e0:	e24dd040 	sub	sp, sp, #64, 0	; 0x40
    84e4:	e1a04000 	mov	r4, r0
    84e8:	ebffff5b 	bl	825c <read_symbol>
    84ec:	e1a0000d 	mov	r0, sp
    84f0:	ebffffc0 	bl	83f8 <get_magnitudes>
    84f4:	e3a03000 	mov	r3, #0, 0
    84f8:	e1a00003 	mov	r0, r3
    84fc:	ea000000 	b	8504 <detect_mask+0x28>
    8500:	e2833001 	add	r3, r3, #1, 0
    8504:	e3530007 	cmp	r3, #7, 0
    8508:	8a000011 	bhi	8554 <detect_mask+0x78>
    850c:	e3540000 	cmp	r4, #0, 0
    8510:	0a000004 	beq	8528 <detect_mask+0x4c>
    8514:	e0842183 	add	r2, r4, r3, lsl #3
    8518:	e28d1040 	add	r1, sp, #64, 0	; 0x40
    851c:	e0811183 	add	r1, r1, r3, lsl #3
    8520:	e14164d0 	ldrd	r6, [r1, #-64]	; 0xffffffc0
    8524:	e1c260f0 	strd	r6, [r2]
    8528:	e28d2040 	add	r2, sp, #64, 0	; 0x40
    852c:	e0822183 	add	r2, r2, r3, lsl #3
    8530:	ed126b10 	vldr	d6, [r2, #-64]	; 0xffffffc0
    8534:	e59f2020 	ldr	r2, [pc, #32]	; 855c <detect_mask+0x80>
    8538:	e0822183 	add	r2, r2, r3, lsl #3
    853c:	ed927b00 	vldr	d7, [r2]
    8540:	eeb46bc7 	vcmpe.f64	d6, d7
    8544:	eef1fa10 	vmrs	APSR_nzcv, fpscr
    8548:	c3a02001 	movgt	r2, #1, 0
    854c:	c1800312 	orrgt	r0, r0, r2, lsl r3
    8550:	eaffffea 	b	8500 <detect_mask+0x24>
    8554:	e28dd040 	add	sp, sp, #64, 0	; 0x40
    8558:	e8bd80d0 	pop	{r4, r6, r7, pc}
    855c:	0000b5d0 	.word	0x0000b5d0

00008560 <wait_for_sync>:
    8560:	e92d4070 	push	{r4, r5, r6, lr}
    8564:	ed2d8b02 	vpush	{d8}
    8568:	e24dd080 	sub	sp, sp, #128, 0	; 0x80
    856c:	e1a06000 	mov	r6, r0
    8570:	e3a0000a 	mov	r0, #10, 0
    8574:	ebffff0f 	bl	81b8 <signal_variance>
    8578:	eeb08b40 	vmov.f64	d8, d0
    857c:	ed9f7b21 	vldr	d7, [pc, #132]	; 8608 <wait_for_sync+0xa8>
    8580:	eeb40bc7 	vcmpe.f64	d0, d7
    8584:	eef1fa10 	vmrs	APSR_nzcv, fpscr
    8588:	4afffff8 	bmi	8570 <wait_for_sync+0x10>
    858c:	ebffff32 	bl	825c <read_symbol>
    8590:	e28d0040 	add	r0, sp, #64, 0	; 0x40
    8594:	ebffffb4 	bl	846c <calibrate_thresholds>
    8598:	e1a0000d 	mov	r0, sp
    859c:	ebffffce 	bl	84dc <detect_mask>
    85a0:	e1a05000 	mov	r5, r0
    85a4:	e3a03000 	mov	r3, #0, 0
    85a8:	e1a04003 	mov	r4, r3
    85ac:	e3530000 	cmp	r3, #0, 0
    85b0:	0a000007 	beq	85d4 <wait_for_sync+0x74>
    85b4:	e3560000 	cmp	r6, #0, 0
    85b8:	1a00000a 	bne	85e8 <wait_for_sync+0x88>
    85bc:	e1550004 	cmp	r5, r4
    85c0:	13a00000 	movne	r0, #0, 0
    85c4:	03a00001 	moveq	r0, #1, 0
    85c8:	e28dd080 	add	sp, sp, #128, 0	; 0x80
    85cc:	ecbd8b02 	vpop	{d8}
    85d0:	e8bd8070 	pop	{r4, r5, r6, pc}
    85d4:	e1a02183 	lsl	r2, r3, #3
    85d8:	e3a0100f 	mov	r1, #15, 0
    85dc:	e1844211 	orr	r4, r4, r1, lsl r2
    85e0:	e2833001 	add	r3, r3, #1, 0
    85e4:	eafffff0 	b	85ac <wait_for_sync+0x4c>
    85e8:	e1a03004 	mov	r3, r4
    85ec:	e1a02005 	mov	r2, r5
    85f0:	e1a0100d 	mov	r1, sp
    85f4:	e28d0040 	add	r0, sp, #64, 0	; 0x40
    85f8:	eeb00b48 	vmov.f64	d0, d8
    85fc:	ebfffe93 	bl	8050 <print_debug>
    8600:	eaffffed 	b	85bc <wait_for_sync+0x5c>
    8604:	e320f000 	nop	{0}
    8608:	d2f1a9fc 	.word	0xd2f1a9fc
    860c:	3f50624d 	.word	0x3f50624d

00008610 <notmain>:
    8610:	e92d40f0 	push	{r4, r5, r6, r7, lr}
    8614:	e24ddf45 	sub	sp, sp, #276	; 0x114
    8618:	eb0008af 	bl	a8dc <caches_enable>
    861c:	e59f0160 	ldr	r0, [pc, #352]	; 8784 <notmain+0x174>
    8620:	eb0001b7 	bl	8d04 <i2s_init>
    8624:	eb0001f7 	bl	8e08 <i2s_rx_enable>
    8628:	e59f0158 	ldr	r0, [pc, #344]	; 8788 <notmain+0x178>
    862c:	eb0008a3 	bl	a8c0 <strlen>
    8630:	e1a05000 	mov	r5, r0
    8634:	e3a03000 	mov	r3, #0, 0
    8638:	ea000045 	b	8754 <notmain+0x144>
    863c:	e1a02183 	lsl	r2, r3, #3
    8640:	e1a02230 	lsr	r2, r0, r2
    8644:	e28d100c 	add	r1, sp, #12, 0
    8648:	e7c12003 	strb	r2, [r1, r3]
    864c:	e2833001 	add	r3, r3, #1, 0
    8650:	ea000014 	b	86a8 <notmain+0x98>
    8654:	e28d3e11 	add	r3, sp, #272	; 0x110
    8658:	e0833002 	add	r3, r3, r2
    865c:	e5531104 	ldrb	r1, [r3, #-260]	; 0xfffffefc
    8660:	e28d3e11 	add	r3, sp, #272	; 0x110
    8664:	e0833004 	add	r3, r3, r4
    8668:	e5431100 	strb	r1, [r3, #-256]	; 0xffffff00
    866c:	e2822001 	add	r2, r2, #1, 0
    8670:	e2844001 	add	r4, r4, #1, 0
    8674:	e35400ff 	cmp	r4, #255, 0	; 0xff
    8678:	83a03000 	movhi	r3, #0, 0
    867c:	93a03001 	movls	r3, #1, 0
    8680:	e3520000 	cmp	r2, #0, 0
    8684:	13a03000 	movne	r3, #0, 0
    8688:	e3530000 	cmp	r3, #0, 0
    868c:	1afffff0 	bne	8654 <notmain+0x44>
    8690:	e2877001 	add	r7, r7, #1, 0
    8694:	e1570005 	cmp	r7, r5
    8698:	2a000009 	bcs	86c4 <notmain+0xb4>
    869c:	e3a00000 	mov	r0, #0, 0
    86a0:	ebffff8d 	bl	84dc <detect_mask>
    86a4:	e3a03000 	mov	r3, #0, 0
    86a8:	e3530000 	cmp	r3, #0, 0
    86ac:	0affffe2 	beq	863c <notmain+0x2c>
    86b0:	e3a02000 	mov	r2, #0, 0
    86b4:	eaffffee 	b	8674 <notmain+0x64>
    86b8:	e3a07000 	mov	r7, #0, 0
    86bc:	e1a04007 	mov	r4, r7
    86c0:	eafffff3 	b	8694 <notmain+0x84>
    86c4:	e3a04000 	mov	r4, #0, 0
    86c8:	e1a07004 	mov	r7, r4
    86cc:	ea000005 	b	86e8 <notmain+0xd8>
    86d0:	e2877001 	add	r7, r7, #1, 0
    86d4:	e58d3000 	str	r3, [sp]
    86d8:	e1a01004 	mov	r1, r4
    86dc:	e59f00a8 	ldr	r0, [pc, #168]	; 878c <notmain+0x17c>
    86e0:	eb0006d2 	bl	a230 <printk>
    86e4:	e2844001 	add	r4, r4, #1, 0
    86e8:	e1540005 	cmp	r4, r5
    86ec:	2a000007 	bcs	8710 <notmain+0x100>
    86f0:	e28d3e11 	add	r3, sp, #272	; 0x110
    86f4:	e0833004 	add	r3, r3, r4
    86f8:	e5532100 	ldrb	r2, [r3, #-256]	; 0xffffff00
    86fc:	e59f3084 	ldr	r3, [pc, #132]	; 8788 <notmain+0x178>
    8700:	e7d43003 	ldrb	r3, [r4, r3]
    8704:	e1520003 	cmp	r2, r3
    8708:	0afffff5 	beq	86e4 <notmain+0xd4>
    870c:	eaffffef 	b	86d0 <notmain+0xc0>
    8710:	e1a02007 	mov	r2, r7
    8714:	e1a01005 	mov	r1, r5
    8718:	e59f0070 	ldr	r0, [pc, #112]	; 8790 <notmain+0x180>
    871c:	eb0006c3 	bl	a230 <printk>
    8720:	e3a04000 	mov	r4, #0, 0
    8724:	e1540005 	cmp	r4, r5
    8728:	2a000006 	bcs	8748 <notmain+0x138>
    872c:	e28d3e11 	add	r3, sp, #272	; 0x110
    8730:	e0833004 	add	r3, r3, r4
    8734:	e5531100 	ldrb	r1, [r3, #-256]	; 0xffffff00
    8738:	e59f0054 	ldr	r0, [pc, #84]	; 8794 <notmain+0x184>
    873c:	eb0006bb 	bl	a230 <printk>
    8740:	e2844001 	add	r4, r4, #1, 0
    8744:	eafffff6 	b	8724 <notmain+0x114>
    8748:	e59f0048 	ldr	r0, [pc, #72]	; 8798 <notmain+0x188>
    874c:	eb0006b7 	bl	a230 <printk>
    8750:	e1a03006 	mov	r3, r6
    8754:	e2836001 	add	r6, r3, #1, 0
    8758:	e2134003 	ands	r4, r3, #3, 0
    875c:	03a00001 	moveq	r0, #1, 0
    8760:	13a00000 	movne	r0, #0, 0
    8764:	ebffff7d 	bl	8560 <wait_for_sync>
    8768:	e3500000 	cmp	r0, #0, 0
    876c:	1affffd1 	bne	86b8 <notmain+0xa8>
    8770:	e3540000 	cmp	r4, #0, 0
    8774:	0afffff5 	beq	8750 <notmain+0x140>
    8778:	e59f001c 	ldr	r0, [pc, #28]	; 879c <notmain+0x18c>
    877c:	eb0006ab 	bl	a230 <printk>
    8780:	eafffff2 	b	8750 <notmain+0x140>
    8784:	0000e678 	.word	0x0000e678
    8788:	0000b064 	.word	0x0000b064
    878c:	0000b0a0 	.word	0x0000b0a0
    8790:	0000b0c8 	.word	0x0000b0c8
    8794:	0000b0e8 	.word	0x0000b0e8
    8798:	0000b4dc 	.word	0x0000b4dc
    879c:	0000b09c 	.word	0x0000b09c

000087a0 <clk_check_offsets>:
    87a0:	e52de004 	push	{lr}		; (str lr, [sp, #-4]!)
    87a4:	e24dd024 	sub	sp, sp, #36, 0	; 0x24
    87a8:	e3a03000 	mov	r3, #0, 0
    87ac:	e1cd31b8 	strh	r3, [sp, #24]
    87b0:	e5cd301a 	strb	r3, [sp, #26]
    87b4:	e59d3018 	ldr	r3, [sp, #24]
    87b8:	e3c334ff 	bic	r3, r3, #-16777216	; 0xff000000
    87bc:	e3832401 	orr	r2, r3, #16777216	; 0x1000000
    87c0:	e3530000 	cmp	r3, #0, 0
    87c4:	1a000015 	bne	8820 <clk_check_offsets+0x80>
    87c8:	e38234ff 	orr	r3, r2, #-16777216	; 0xff000000
    87cc:	e3d224ff 	bics	r2, r2, #-16777216	; 0xff000000
    87d0:	1a000021 	bne	885c <clk_check_offsets+0xbc>
    87d4:	e59f31a0 	ldr	r3, [pc, #416]	; 897c <clk_check_offsets+0x1dc>
    87d8:	e1530003 	cmp	r3, r3
    87dc:	1a00002d 	bne	8898 <clk_check_offsets+0xf8>
    87e0:	e59f3198 	ldr	r3, [pc, #408]	; 8980 <clk_check_offsets+0x1e0>
    87e4:	e1530003 	cmp	r3, r3
    87e8:	1a000038 	bne	88d0 <clk_check_offsets+0x130>
    87ec:	e3a03000 	mov	r3, #0, 0
    87f0:	e1cd31b8 	strh	r3, [sp, #24]
    87f4:	e5cd301a 	strb	r3, [sp, #26]
    87f8:	e59d3018 	ldr	r3, [sp, #24]
    87fc:	e3c334ff 	bic	r3, r3, #-16777216	; 0xff000000
    8800:	e3832401 	orr	r2, r3, #16777216	; 0x1000000
    8804:	e3530000 	cmp	r3, #0, 0
    8808:	1a00003d 	bne	8904 <clk_check_offsets+0x164>
    880c:	e38234ff 	orr	r3, r2, #-16777216	; 0xff000000
    8810:	e3d224ff 	bics	r2, r2, #-16777216	; 0xff000000
    8814:	1a000049 	bne	8940 <clk_check_offsets+0x1a0>
    8818:	e28dd024 	add	sp, sp, #36, 0	; 0x24
    881c:	e49df004 	pop	{pc}		; (ldr pc, [sp], #4)
    8820:	e3a03008 	mov	r3, #8, 0
    8824:	e58d3010 	str	r3, [sp, #16]
    8828:	e3a03018 	mov	r3, #24, 0
    882c:	e58d300c 	str	r3, [sp, #12]
    8830:	e59f314c 	ldr	r3, [pc, #332]	; 8984 <clk_check_offsets+0x1e4>
    8834:	e58d3008 	str	r3, [sp, #8]
    8838:	e58d2004 	str	r2, [sp, #4]
    883c:	e3a03401 	mov	r3, #16777216	; 0x1000000
    8840:	e58d3000 	str	r3, [sp]
    8844:	e3a0305b 	mov	r3, #91, 0	; 0x5b
    8848:	e59f2138 	ldr	r2, [pc, #312]	; 8988 <clk_check_offsets+0x1e8>
    884c:	e59f1138 	ldr	r1, [pc, #312]	; 898c <clk_check_offsets+0x1ec>
    8850:	e59f0138 	ldr	r0, [pc, #312]	; 8990 <clk_check_offsets+0x1f0>
    8854:	eb000675 	bl	a230 <printk>
    8858:	eb000832 	bl	a928 <clean_reboot>
    885c:	e3a02008 	mov	r2, #8, 0
    8860:	e58d2010 	str	r2, [sp, #16]
    8864:	e3a02018 	mov	r2, #24, 0
    8868:	e58d200c 	str	r2, [sp, #12]
    886c:	e59f2110 	ldr	r2, [pc, #272]	; 8984 <clk_check_offsets+0x1e4>
    8870:	e58d2008 	str	r2, [sp, #8]
    8874:	e58d3004 	str	r3, [sp, #4]
    8878:	e3a034ff 	mov	r3, #-16777216	; 0xff000000
    887c:	e58d3000 	str	r3, [sp]
    8880:	e3a0305b 	mov	r3, #91, 0	; 0x5b
    8884:	e59f20fc 	ldr	r2, [pc, #252]	; 8988 <clk_check_offsets+0x1e8>
    8888:	e59f10fc 	ldr	r1, [pc, #252]	; 898c <clk_check_offsets+0x1ec>
    888c:	e59f0100 	ldr	r0, [pc, #256]	; 8994 <clk_check_offsets+0x1f4>
    8890:	eb000666 	bl	a230 <printk>
    8894:	eb000823 	bl	a928 <clean_reboot>
    8898:	e3a0200c 	mov	r2, #12, 0
    889c:	e58d2010 	str	r2, [sp, #16]
    88a0:	e3a02000 	mov	r2, #0, 0
    88a4:	e58d200c 	str	r2, [sp, #12]
    88a8:	e59f20e8 	ldr	r2, [pc, #232]	; 8998 <clk_check_offsets+0x1f8>
    88ac:	e58d2008 	str	r2, [sp, #8]
    88b0:	e58d3004 	str	r3, [sp, #4]
    88b4:	e58d3000 	str	r3, [sp]
    88b8:	e3a0305d 	mov	r3, #93, 0	; 0x5d
    88bc:	e59f20c4 	ldr	r2, [pc, #196]	; 8988 <clk_check_offsets+0x1e8>
    88c0:	e59f10c4 	ldr	r1, [pc, #196]	; 898c <clk_check_offsets+0x1ec>
    88c4:	e59f00c8 	ldr	r0, [pc, #200]	; 8994 <clk_check_offsets+0x1f4>
    88c8:	eb000658 	bl	a230 <printk>
    88cc:	eb000815 	bl	a928 <clean_reboot>
    88d0:	e3a0200c 	mov	r2, #12, 0
    88d4:	e58d2010 	str	r2, [sp, #16]
    88d8:	e58d200c 	str	r2, [sp, #12]
    88dc:	e59f20b8 	ldr	r2, [pc, #184]	; 899c <clk_check_offsets+0x1fc>
    88e0:	e58d2008 	str	r2, [sp, #8]
    88e4:	e58d3004 	str	r3, [sp, #4]
    88e8:	e58d3000 	str	r3, [sp]
    88ec:	e3a0305e 	mov	r3, #94, 0	; 0x5e
    88f0:	e59f2090 	ldr	r2, [pc, #144]	; 8988 <clk_check_offsets+0x1e8>
    88f4:	e59f1090 	ldr	r1, [pc, #144]	; 898c <clk_check_offsets+0x1ec>
    88f8:	e59f0094 	ldr	r0, [pc, #148]	; 8994 <clk_check_offsets+0x1f4>
    88fc:	eb00064b 	bl	a230 <printk>
    8900:	eb000808 	bl	a928 <clean_reboot>
    8904:	e3a03008 	mov	r3, #8, 0
    8908:	e58d3010 	str	r3, [sp, #16]
    890c:	e3a03018 	mov	r3, #24, 0
    8910:	e58d300c 	str	r3, [sp, #12]
    8914:	e59f3068 	ldr	r3, [pc, #104]	; 8984 <clk_check_offsets+0x1e4>
    8918:	e58d3008 	str	r3, [sp, #8]
    891c:	e58d2004 	str	r2, [sp, #4]
    8920:	e3a03401 	mov	r3, #16777216	; 0x1000000
    8924:	e58d3000 	str	r3, [sp]
    8928:	e3a0305f 	mov	r3, #95, 0	; 0x5f
    892c:	e59f2054 	ldr	r2, [pc, #84]	; 8988 <clk_check_offsets+0x1e8>
    8930:	e59f1054 	ldr	r1, [pc, #84]	; 898c <clk_check_offsets+0x1ec>
    8934:	e59f0054 	ldr	r0, [pc, #84]	; 8990 <clk_check_offsets+0x1f0>
    8938:	eb00063c 	bl	a230 <printk>
    893c:	eb0007f9 	bl	a928 <clean_reboot>
    8940:	e3a02008 	mov	r2, #8, 0
    8944:	e58d2010 	str	r2, [sp, #16]
    8948:	e3a02018 	mov	r2, #24, 0
    894c:	e58d200c 	str	r2, [sp, #12]
    8950:	e59f202c 	ldr	r2, [pc, #44]	; 8984 <clk_check_offsets+0x1e4>
    8954:	e58d2008 	str	r2, [sp, #8]
    8958:	e58d3004 	str	r3, [sp, #4]
    895c:	e3a034ff 	mov	r3, #-16777216	; 0xff000000
    8960:	e58d3000 	str	r3, [sp]
    8964:	e3a0305f 	mov	r3, #95, 0	; 0x5f
    8968:	e59f2018 	ldr	r2, [pc, #24]	; 8988 <clk_check_offsets+0x1e8>
    896c:	e59f1018 	ldr	r1, [pc, #24]	; 898c <clk_check_offsets+0x1ec>
    8970:	e59f001c 	ldr	r0, [pc, #28]	; 8994 <clk_check_offsets+0x1f4>
    8974:	eb00062d 	bl	a230 <printk>
    8978:	eb0007ea 	bl	a928 <clean_reboot>
    897c:	00000fff 	.word	0x00000fff
    8980:	00fff000 	.word	0x00fff000
    8984:	0000b224 	.word	0x0000b224
    8988:	0000b2b4 	.word	0x0000b2b4
    898c:	0000b0ec 	.word	0x0000b0ec
    8990:	0000b134 	.word	0x0000b134
    8994:	0000b180 	.word	0x0000b180
    8998:	0000b23c 	.word	0x0000b23c
    899c:	0000b254 	.word	0x0000b254

000089a0 <gpio_set_value>:
    89a0:	e92d4070 	push	{r4, r5, r6, lr}
    89a4:	e1a06001 	mov	r6, r1
    89a8:	e59f3040 	ldr	r3, [pc, #64]	; 89f0 <gpio_set_value+0x50>
    89ac:	e0832093 	umull	r2, r3, r3, r0
    89b0:	e1a031a3 	lsr	r3, r3, #3
    89b4:	e0835103 	add	r5, r3, r3, lsl #2
    89b8:	e0405085 	sub	r5, r0, r5, lsl #1
    89bc:	e0855085 	add	r5, r5, r5, lsl #1
    89c0:	e2830302 	add	r0, r3, #134217728	; 0x8000000
    89c4:	e2800702 	add	r0, r0, #524288	; 0x80000
    89c8:	e1a04100 	lsl	r4, r0, #2
    89cc:	e1a00004 	mov	r0, r4
    89d0:	ebfffd9b 	bl	8044 <GET32>
    89d4:	e3a01007 	mov	r1, #7, 0
    89d8:	e1c00511 	bic	r0, r0, r1, lsl r5
    89dc:	e0061001 	and	r1, r6, r1
    89e0:	e1801511 	orr	r1, r0, r1, lsl r5
    89e4:	e1a00004 	mov	r0, r4
    89e8:	ebfffd93 	bl	803c <PUT32>
    89ec:	e8bd8070 	pop	{r4, r5, r6, pc}
    89f0:	cccccccd 	.word	0xcccccccd

000089f4 <pcm_check_initial>:
    89f4:	e92d4010 	push	{r4, lr}
    89f8:	eb0007e3 	bl	a98c <dev_barrier>
    89fc:	e59f31cc 	ldr	r3, [pc, #460]	; 8bd0 <pcm_check_initial+0x1dc>
    8a00:	e5933000 	ldr	r3, [r3]
    8a04:	e3130602 	tst	r3, #2097152	; 0x200000
    8a08:	0a000034 	beq	8ae0 <pcm_check_initial+0xec>
    8a0c:	e59f31bc 	ldr	r3, [pc, #444]	; 8bd0 <pcm_check_initial+0x1dc>
    8a10:	e5933000 	ldr	r3, [r3]
    8a14:	e3130702 	tst	r3, #524288	; 0x80000
    8a18:	0a000036 	beq	8af8 <pcm_check_initial+0x104>
    8a1c:	e59f31ac 	ldr	r3, [pc, #428]	; 8bd0 <pcm_check_initial+0x1dc>
    8a20:	e5933000 	ldr	r3, [r3]
    8a24:	e3130802 	tst	r3, #131072	; 0x20000
    8a28:	0a000038 	beq	8b10 <pcm_check_initial+0x11c>
    8a2c:	e59f319c 	ldr	r3, [pc, #412]	; 8bd0 <pcm_check_initial+0x1dc>
    8a30:	e5933014 	ldr	r3, [r3, #20]
    8a34:	e1a03c23 	lsr	r3, r3, #24
    8a38:	e203307f 	and	r3, r3, #127, 0	; 0x7f
    8a3c:	e3530010 	cmp	r3, #16, 0
    8a40:	1a000038 	bne	8b28 <pcm_check_initial+0x134>
    8a44:	e59f3184 	ldr	r3, [pc, #388]	; 8bd0 <pcm_check_initial+0x1dc>
    8a48:	e5933014 	ldr	r3, [r3, #20]
    8a4c:	e1a03823 	lsr	r3, r3, #16
    8a50:	e203307f 	and	r3, r3, #127, 0	; 0x7f
    8a54:	e3530030 	cmp	r3, #48, 0	; 0x30
    8a58:	1a000038 	bne	8b40 <pcm_check_initial+0x14c>
    8a5c:	e59f316c 	ldr	r3, [pc, #364]	; 8bd0 <pcm_check_initial+0x1dc>
    8a60:	e5933014 	ldr	r3, [r3, #20]
    8a64:	e1a03423 	lsr	r3, r3, #8
    8a68:	e203307f 	and	r3, r3, #127, 0	; 0x7f
    8a6c:	e3530030 	cmp	r3, #48, 0	; 0x30
    8a70:	1a000038 	bne	8b58 <pcm_check_initial+0x164>
    8a74:	e59f3154 	ldr	r3, [pc, #340]	; 8bd0 <pcm_check_initial+0x1dc>
    8a78:	e5933014 	ldr	r3, [r3, #20]
    8a7c:	e203307f 	and	r3, r3, #127, 0	; 0x7f
    8a80:	e3530020 	cmp	r3, #32, 0
    8a84:	1a000039 	bne	8b70 <pcm_check_initial+0x17c>
    8a88:	e59f3140 	ldr	r3, [pc, #320]	; 8bd0 <pcm_check_initial+0x1dc>
    8a8c:	e5933010 	ldr	r3, [r3, #16]
    8a90:	e3530000 	cmp	r3, #0, 0
    8a94:	1a00003b 	bne	8b88 <pcm_check_initial+0x194>
    8a98:	e59f3130 	ldr	r3, [pc, #304]	; 8bd0 <pcm_check_initial+0x1dc>
    8a9c:	e5933018 	ldr	r3, [r3, #24]
    8aa0:	e3530000 	cmp	r3, #0, 0
    8aa4:	1a00003d 	bne	8ba0 <pcm_check_initial+0x1ac>
    8aa8:	e59f3120 	ldr	r3, [pc, #288]	; 8bd0 <pcm_check_initial+0x1dc>
    8aac:	e593301c 	ldr	r3, [r3, #28]
    8ab0:	e3530000 	cmp	r3, #0, 0
    8ab4:	1a00003f 	bne	8bb8 <pcm_check_initial+0x1c4>
    8ab8:	e59f3110 	ldr	r3, [pc, #272]	; 8bd0 <pcm_check_initial+0x1dc>
    8abc:	e5933020 	ldr	r3, [r3, #32]
    8ac0:	e3530000 	cmp	r3, #0, 0
    8ac4:	08bd8010 	popeq	{r4, pc}
    8ac8:	e3a03056 	mov	r3, #86, 0	; 0x56
    8acc:	e59f2100 	ldr	r2, [pc, #256]	; 8bd4 <pcm_check_initial+0x1e0>
    8ad0:	e59f1100 	ldr	r1, [pc, #256]	; 8bd8 <pcm_check_initial+0x1e4>
    8ad4:	e59f0100 	ldr	r0, [pc, #256]	; 8bdc <pcm_check_initial+0x1e8>
    8ad8:	eb0005d4 	bl	a230 <printk>
    8adc:	eb000791 	bl	a928 <clean_reboot>
    8ae0:	e3a0303b 	mov	r3, #59, 0	; 0x3b
    8ae4:	e59f20e8 	ldr	r2, [pc, #232]	; 8bd4 <pcm_check_initial+0x1e0>
    8ae8:	e59f10e8 	ldr	r1, [pc, #232]	; 8bd8 <pcm_check_initial+0x1e4>
    8aec:	e59f00e8 	ldr	r0, [pc, #232]	; 8bdc <pcm_check_initial+0x1e8>
    8af0:	eb0005ce 	bl	a230 <printk>
    8af4:	eb00078b 	bl	a928 <clean_reboot>
    8af8:	e3a0303d 	mov	r3, #61, 0	; 0x3d
    8afc:	e59f20d0 	ldr	r2, [pc, #208]	; 8bd4 <pcm_check_initial+0x1e0>
    8b00:	e59f10d0 	ldr	r1, [pc, #208]	; 8bd8 <pcm_check_initial+0x1e4>
    8b04:	e59f00d0 	ldr	r0, [pc, #208]	; 8bdc <pcm_check_initial+0x1e8>
    8b08:	eb0005c8 	bl	a230 <printk>
    8b0c:	eb000785 	bl	a928 <clean_reboot>
    8b10:	e3a0303f 	mov	r3, #63, 0	; 0x3f
    8b14:	e59f20b8 	ldr	r2, [pc, #184]	; 8bd4 <pcm_check_initial+0x1e0>
    8b18:	e59f10b8 	ldr	r1, [pc, #184]	; 8bd8 <pcm_check_initial+0x1e4>
    8b1c:	e59f00b8 	ldr	r0, [pc, #184]	; 8bdc <pcm_check_initial+0x1e8>
    8b20:	eb0005c2 	bl	a230 <printk>
    8b24:	eb00077f 	bl	a928 <clean_reboot>
    8b28:	e3a03043 	mov	r3, #67, 0	; 0x43
    8b2c:	e59f20a0 	ldr	r2, [pc, #160]	; 8bd4 <pcm_check_initial+0x1e0>
    8b30:	e59f10a0 	ldr	r1, [pc, #160]	; 8bd8 <pcm_check_initial+0x1e4>
    8b34:	e59f00a0 	ldr	r0, [pc, #160]	; 8bdc <pcm_check_initial+0x1e8>
    8b38:	eb0005bc 	bl	a230 <printk>
    8b3c:	eb000779 	bl	a928 <clean_reboot>
    8b40:	e3a03045 	mov	r3, #69, 0	; 0x45
    8b44:	e59f2088 	ldr	r2, [pc, #136]	; 8bd4 <pcm_check_initial+0x1e0>
    8b48:	e59f1088 	ldr	r1, [pc, #136]	; 8bd8 <pcm_check_initial+0x1e4>
    8b4c:	e59f0088 	ldr	r0, [pc, #136]	; 8bdc <pcm_check_initial+0x1e8>
    8b50:	eb0005b6 	bl	a230 <printk>
    8b54:	eb000773 	bl	a928 <clean_reboot>
    8b58:	e3a03047 	mov	r3, #71, 0	; 0x47
    8b5c:	e59f2070 	ldr	r2, [pc, #112]	; 8bd4 <pcm_check_initial+0x1e0>
    8b60:	e59f1070 	ldr	r1, [pc, #112]	; 8bd8 <pcm_check_initial+0x1e4>
    8b64:	e59f0070 	ldr	r0, [pc, #112]	; 8bdc <pcm_check_initial+0x1e8>
    8b68:	eb0005b0 	bl	a230 <printk>
    8b6c:	eb00076d 	bl	a928 <clean_reboot>
    8b70:	e3a03049 	mov	r3, #73, 0	; 0x49
    8b74:	e59f2058 	ldr	r2, [pc, #88]	; 8bd4 <pcm_check_initial+0x1e0>
    8b78:	e59f1058 	ldr	r1, [pc, #88]	; 8bd8 <pcm_check_initial+0x1e4>
    8b7c:	e59f0058 	ldr	r0, [pc, #88]	; 8bdc <pcm_check_initial+0x1e8>
    8b80:	eb0005aa 	bl	a230 <printk>
    8b84:	eb000767 	bl	a928 <clean_reboot>
    8b88:	e3a0304d 	mov	r3, #77, 0	; 0x4d
    8b8c:	e59f2040 	ldr	r2, [pc, #64]	; 8bd4 <pcm_check_initial+0x1e0>
    8b90:	e59f1040 	ldr	r1, [pc, #64]	; 8bd8 <pcm_check_initial+0x1e4>
    8b94:	e59f0040 	ldr	r0, [pc, #64]	; 8bdc <pcm_check_initial+0x1e8>
    8b98:	eb0005a4 	bl	a230 <printk>
    8b9c:	eb000761 	bl	a928 <clean_reboot>
    8ba0:	e3a03051 	mov	r3, #81, 0	; 0x51
    8ba4:	e59f2028 	ldr	r2, [pc, #40]	; 8bd4 <pcm_check_initial+0x1e0>
    8ba8:	e59f1028 	ldr	r1, [pc, #40]	; 8bd8 <pcm_check_initial+0x1e4>
    8bac:	e59f0028 	ldr	r0, [pc, #40]	; 8bdc <pcm_check_initial+0x1e8>
    8bb0:	eb00059e 	bl	a230 <printk>
    8bb4:	eb00075b 	bl	a928 <clean_reboot>
    8bb8:	e3a03054 	mov	r3, #84, 0	; 0x54
    8bbc:	e59f2010 	ldr	r2, [pc, #16]	; 8bd4 <pcm_check_initial+0x1e0>
    8bc0:	e59f1010 	ldr	r1, [pc, #16]	; 8bd8 <pcm_check_initial+0x1e4>
    8bc4:	e59f0010 	ldr	r0, [pc, #16]	; 8bdc <pcm_check_initial+0x1e8>
    8bc8:	eb000598 	bl	a230 <printk>
    8bcc:	eb000755 	bl	a928 <clean_reboot>
    8bd0:	20203000 	.word	0x20203000
    8bd4:	0000b2c8 	.word	0x0000b2c8
    8bd8:	0000b25c 	.word	0x0000b25c
    8bdc:	0000b264 	.word	0x0000b264

00008be0 <clock_to_div>:
    8be0:	e59f2040 	ldr	r2, [pc, #64]	; 8c28 <clock_to_div+0x48>
    8be4:	e1510002 	cmp	r1, r2
    8be8:	1a000005 	bne	8c04 <clock_to_div+0x24>
    8bec:	e1a03000 	mov	r3, r0
    8bf0:	e59f2034 	ldr	r2, [pc, #52]	; 8c2c <clock_to_div+0x4c>
    8bf4:	e8920007 	ldm	r2, {r0, r1, r2}
    8bf8:	e8830007 	stm	r3, {r0, r1, r2}
    8bfc:	e1a00003 	mov	r0, r3
    8c00:	e12fff1e 	bx	lr
    8c04:	e52de004 	push	{lr}		; (str lr, [sp, #-4]!)
    8c08:	e24dd00c 	sub	sp, sp, #12, 0
    8c0c:	e58d1000 	str	r1, [sp]
    8c10:	e3a0300f 	mov	r3, #15, 0
    8c14:	e59f2014 	ldr	r2, [pc, #20]	; 8c30 <clock_to_div+0x50>
    8c18:	e59f1014 	ldr	r1, [pc, #20]	; 8c34 <clock_to_div+0x54>
    8c1c:	e59f0014 	ldr	r0, [pc, #20]	; 8c38 <clock_to_div+0x58>
    8c20:	eb000582 	bl	a230 <printk>
    8c24:	eb00073f 	bl	a928 <clean_reboot>
    8c28:	0000ac44 	.word	0x0000ac44
    8c2c:	0000b2dc 	.word	0x0000b2dc
    8c30:	0000b2e8 	.word	0x0000b2e8
    8c34:	0000b25c 	.word	0x0000b25c
    8c38:	0000b288 	.word	0x0000b288

00008c3c <pcm_clock_init>:
    8c3c:	e92d4010 	push	{r4, lr}
    8c40:	e24dd008 	sub	sp, sp, #8, 0
    8c44:	e1a04000 	mov	r4, r0
    8c48:	eb00074f 	bl	a98c <dev_barrier>
    8c4c:	e1a01004 	mov	r1, r4
    8c50:	e59f009c 	ldr	r0, [pc, #156]	; 8cf4 <pcm_clock_init+0xb8>
    8c54:	eb000896 	bl	aeb4 <__udivsi3>
    8c58:	e1a04620 	lsr	r4, r0, #12
    8c5c:	e1a04a04 	lsl	r4, r4, #20
    8c60:	e1a04a24 	lsr	r4, r4, #20
    8c64:	e1a00a00 	lsl	r0, r0, #20
    8c68:	e1a00a20 	lsr	r0, r0, #20
    8c6c:	e1800604 	orr	r0, r0, r4, lsl #12
    8c70:	e380445a 	orr	r4, r0, #1509949440	; 0x5a000000
    8c74:	e3a03000 	mov	r3, #0, 0
    8c78:	e1cd30b0 	strh	r3, [sp]
    8c7c:	e5cd3002 	strb	r3, [sp, #2]
    8c80:	e59d1000 	ldr	r1, [sp]
    8c84:	e3c114ff 	bic	r1, r1, #-16777216	; 0xff000000
    8c88:	e3c1100e 	bic	r1, r1, #14, 0
    8c8c:	e381145a 	orr	r1, r1, #1509949440	; 0x5a000000
    8c90:	e3811001 	orr	r1, r1, #1, 0
    8c94:	e59f005c 	ldr	r0, [pc, #92]	; 8cf8 <pcm_clock_init+0xbc>
    8c98:	ebfffce7 	bl	803c <PUT32>
    8c9c:	e59f3058 	ldr	r3, [pc, #88]	; 8cfc <pcm_clock_init+0xc0>
    8ca0:	e1d339d8 	ldrsb	r3, [r3, #152]	; 0x98
    8ca4:	e3530000 	cmp	r3, #0, 0
    8ca8:	bafffffb 	blt	8c9c <pcm_clock_init+0x60>
    8cac:	e1a01004 	mov	r1, r4
    8cb0:	e59f0048 	ldr	r0, [pc, #72]	; 8d00 <pcm_clock_init+0xc4>
    8cb4:	ebfffce0 	bl	803c <PUT32>
    8cb8:	e3a03000 	mov	r3, #0, 0
    8cbc:	e1cd30b0 	strh	r3, [sp]
    8cc0:	e5cd3002 	strb	r3, [sp, #2]
    8cc4:	e59d1000 	ldr	r1, [sp]
    8cc8:	e3c114ff 	bic	r1, r1, #-16777216	; 0xff000000
    8ccc:	e3c1100e 	bic	r1, r1, #14, 0
    8cd0:	e3811011 	orr	r1, r1, #17, 0
    8cd4:	e3c11b01 	bic	r1, r1, #1024	; 0x400
    8cd8:	e381145a 	orr	r1, r1, #1509949440	; 0x5a000000
    8cdc:	e3811c02 	orr	r1, r1, #512	; 0x200
    8ce0:	e59f0010 	ldr	r0, [pc, #16]	; 8cf8 <pcm_clock_init+0xbc>
    8ce4:	ebfffcd4 	bl	803c <PUT32>
    8ce8:	eb000727 	bl	a98c <dev_barrier>
    8cec:	e28dd008 	add	sp, sp, #8, 0
    8cf0:	e8bd8010 	pop	{r4, pc}
    8cf4:	493e0000 	.word	0x493e0000
    8cf8:	20101098 	.word	0x20101098
    8cfc:	20101000 	.word	0x20101000
    8d00:	2010109c 	.word	0x2010109c

00008d04 <i2s_init>:
    8d04:	e92d4010 	push	{r4, lr}
    8d08:	e1a04000 	mov	r4, r0
    8d0c:	ebfffea3 	bl	87a0 <clk_check_offsets>
    8d10:	eb00071d 	bl	a98c <dev_barrier>
    8d14:	e3a01004 	mov	r1, #4, 0
    8d18:	e3a00012 	mov	r0, #18, 0
    8d1c:	ebffff1f 	bl	89a0 <gpio_set_value>
    8d20:	e3a01004 	mov	r1, #4, 0
    8d24:	e3a00013 	mov	r0, #19, 0
    8d28:	ebffff1c 	bl	89a0 <gpio_set_value>
    8d2c:	e3a01004 	mov	r1, #4, 0
    8d30:	e3a00014 	mov	r0, #20, 0
    8d34:	ebffff19 	bl	89a0 <gpio_set_value>
    8d38:	e3a01004 	mov	r1, #4, 0
    8d3c:	e3a00015 	mov	r0, #21, 0
    8d40:	ebffff16 	bl	89a0 <gpio_set_value>
    8d44:	ebffff2a 	bl	89f4 <pcm_check_initial>
    8d48:	e1a00004 	mov	r0, r4
    8d4c:	ebffffba 	bl	8c3c <pcm_clock_init>
    8d50:	e59f4044 	ldr	r4, [pc, #68]	; 8d9c <i2s_init+0x98>
    8d54:	e3a03001 	mov	r3, #1, 0
    8d58:	e5843000 	str	r3, [r4]
    8d5c:	eb00070a 	bl	a98c <dev_barrier>
    8d60:	e59f3038 	ldr	r3, [pc, #56]	; 8da0 <i2s_init+0x9c>
    8d64:	e5843008 	str	r3, [r4, #8]
    8d68:	e59f3034 	ldr	r3, [pc, #52]	; 8da4 <i2s_init+0xa0>
    8d6c:	e584300c 	str	r3, [r4, #12]
    8d70:	e2833cc2 	add	r3, r3, #49664	; 0xc200
    8d74:	e2833018 	add	r3, r3, #24, 0
    8d78:	e5843010 	str	r3, [r4, #16]
    8d7c:	e59f3024 	ldr	r3, [pc, #36]	; 8da8 <i2s_init+0xa4>
    8d80:	e5843000 	str	r3, [r4]
    8d84:	e59f3010 	ldr	r3, [pc, #16]	; 8d9c <i2s_init+0x98>
    8d88:	e5933000 	ldr	r3, [r3]
    8d8c:	e3130401 	tst	r3, #16777216	; 0x1000000
    8d90:	0afffffb 	beq	8d84 <i2s_init+0x80>
    8d94:	eb0006fc 	bl	a98c <dev_barrier>
    8d98:	e8bd8010 	pop	{r4, pc}
    8d9c:	20203000 	.word	0x20203000
    8da0:	0000fc20 	.word	0x0000fc20
    8da4:	c0180000 	.word	0xc0180000
    8da8:	01000019 	.word	0x01000019

00008dac <i2s_get32>:
    8dac:	e59f3014 	ldr	r3, [pc, #20]	; 8dc8 <i2s_get32+0x1c>
    8db0:	e5933000 	ldr	r3, [r3]
    8db4:	e3130601 	tst	r3, #1048576	; 0x100000
    8db8:	0afffffb 	beq	8dac <i2s_get32>
    8dbc:	e59f3004 	ldr	r3, [pc, #4]	; 8dc8 <i2s_get32+0x1c>
    8dc0:	e5930004 	ldr	r0, [r3, #4]
    8dc4:	e12fff1e 	bx	lr
    8dc8:	20203000 	.word	0x20203000

00008dcc <i2s_tx_enable>:
    8dcc:	e92d4010 	push	{r4, lr}
    8dd0:	e59f3028 	ldr	r3, [pc, #40]	; 8e00 <i2s_tx_enable+0x34>
    8dd4:	e59f2028 	ldr	r2, [pc, #40]	; 8e04 <i2s_tx_enable+0x38>
    8dd8:	e5832000 	str	r2, [r3]
    8ddc:	e59f301c 	ldr	r3, [pc, #28]	; 8e00 <i2s_tx_enable+0x34>
    8de0:	e5933000 	ldr	r3, [r3]
    8de4:	e3130401 	tst	r3, #16777216	; 0x1000000
    8de8:	0afffffb 	beq	8ddc <i2s_tx_enable+0x10>
    8dec:	e59f300c 	ldr	r3, [pc, #12]	; 8e00 <i2s_tx_enable+0x34>
    8df0:	e3a02005 	mov	r2, #5, 0
    8df4:	e5832000 	str	r2, [r3]
    8df8:	eb0006e3 	bl	a98c <dev_barrier>
    8dfc:	e8bd8010 	pop	{r4, pc}
    8e00:	20203000 	.word	0x20203000
    8e04:	01000009 	.word	0x01000009

00008e08 <i2s_rx_enable>:
    8e08:	e92d4010 	push	{r4, lr}
    8e0c:	e59f3028 	ldr	r3, [pc, #40]	; 8e3c <i2s_rx_enable+0x34>
    8e10:	e59f2028 	ldr	r2, [pc, #40]	; 8e40 <i2s_rx_enable+0x38>
    8e14:	e5832000 	str	r2, [r3]
    8e18:	e59f301c 	ldr	r3, [pc, #28]	; 8e3c <i2s_rx_enable+0x34>
    8e1c:	e5933000 	ldr	r3, [r3]
    8e20:	e3130401 	tst	r3, #16777216	; 0x1000000
    8e24:	0afffffb 	beq	8e18 <i2s_rx_enable+0x10>
    8e28:	e59f300c 	ldr	r3, [pc, #12]	; 8e3c <i2s_rx_enable+0x34>
    8e2c:	e3a02003 	mov	r2, #3, 0
    8e30:	e5832000 	str	r2, [r3]
    8e34:	eb0006d4 	bl	a98c <dev_barrier>
    8e38:	e8bd8010 	pop	{r4, pc}
    8e3c:	20203000 	.word	0x20203000
    8e40:	01000011 	.word	0x01000011

00008e44 <i2s_put_frame>:
    8e44:	e59f302c 	ldr	r3, [pc, #44]	; 8e78 <i2s_put_frame+0x34>
    8e48:	e5933000 	ldr	r3, [r3]
    8e4c:	e3130702 	tst	r3, #524288	; 0x80000
    8e50:	0afffffb 	beq	8e44 <i2s_put_frame>
    8e54:	e59f301c 	ldr	r3, [pc, #28]	; 8e78 <i2s_put_frame+0x34>
    8e58:	e5830004 	str	r0, [r3, #4]
    8e5c:	e59f3014 	ldr	r3, [pc, #20]	; 8e78 <i2s_put_frame+0x34>
    8e60:	e5933000 	ldr	r3, [r3]
    8e64:	e3130702 	tst	r3, #524288	; 0x80000
    8e68:	0afffffb 	beq	8e5c <i2s_put_frame+0x18>
    8e6c:	e59f3004 	ldr	r3, [pc, #4]	; 8e78 <i2s_put_frame+0x34>
    8e70:	e5832004 	str	r2, [r3, #4]
    8e74:	e12fff1e 	bx	lr
    8e78:	20203000 	.word	0x20203000

00008e7c <cos>:
    8e7c:	e52de004 	push	{lr}		; (str lr, [sp, #-4]!)
    8e80:	e24dd01c 	sub	sp, sp, #28, 0
    8e84:	e3c13102 	bic	r3, r1, #-2147483648	; 0x80000000
    8e88:	e59f20d8 	ldr	r2, [pc, #216]	; 8f68 <cos+0xec>
    8e8c:	e1530002 	cmp	r3, r2
    8e90:	ca00000c 	bgt	8ec8 <cos+0x4c>
    8e94:	e59f20d0 	ldr	r2, [pc, #208]	; 8f6c <cos+0xf0>
    8e98:	e1530002 	cmp	r3, r2
    8e9c:	ca000004 	bgt	8eb4 <cos+0x38>
    8ea0:	ec410b17 	vmov	d7, r0, r1
    8ea4:	eefd7bc7 	vcvt.s32.f64	s15, d7
    8ea8:	ee173a90 	vmov	r3, s15
    8eac:	e3530000 	cmp	r3, #0, 0
    8eb0:	0a000029 	beq	8f5c <cos+0xe0>
    8eb4:	e3a02000 	mov	r2, #0, 0
    8eb8:	e3a03000 	mov	r3, #0, 0
    8ebc:	eb00002d 	bl	8f78 <__kernel_cos>
    8ec0:	e28dd01c 	add	sp, sp, #28, 0
    8ec4:	e49df004 	pop	{pc}		; (ldr pc, [sp], #4)
    8ec8:	e59f20a0 	ldr	r2, [pc, #160]	; 8f70 <cos+0xf4>
    8ecc:	e1530002 	cmp	r3, r2
    8ed0:	cc410b17 	vmovgt	d7, r0, r1
    8ed4:	ce377b47 	vsubgt.f64	d7, d7, d7
    8ed8:	cc510b17 	vmovgt	r0, r1, d7
    8edc:	cafffff7 	bgt	8ec0 <cos+0x44>
    8ee0:	e28d2008 	add	r2, sp, #8, 0
    8ee4:	eb00007f 	bl	90e8 <__ieee754_rem_pio2>
    8ee8:	e2000003 	and	r0, r0, #3, 0
    8eec:	e3500001 	cmp	r0, #1, 0
    8ef0:	0a00000d 	beq	8f2c <cos+0xb0>
    8ef4:	e3500002 	cmp	r0, #2, 0
    8ef8:	0a000012 	beq	8f48 <cos+0xcc>
    8efc:	e3500000 	cmp	r0, #0, 0
    8f00:	0a000005 	beq	8f1c <cos+0xa0>
    8f04:	e3a03001 	mov	r3, #1, 0
    8f08:	e58d3000 	str	r3, [sp]
    8f0c:	e1cd21d0 	ldrd	r2, [sp, #16]
    8f10:	e1cd00d8 	ldrd	r0, [sp, #8]
    8f14:	eb000045 	bl	9030 <__kernel_sin>
    8f18:	eaffffe8 	b	8ec0 <cos+0x44>
    8f1c:	e1cd21d0 	ldrd	r2, [sp, #16]
    8f20:	e1cd00d8 	ldrd	r0, [sp, #8]
    8f24:	eb000013 	bl	8f78 <__kernel_cos>
    8f28:	eaffffe4 	b	8ec0 <cos+0x44>
    8f2c:	e3a03001 	mov	r3, #1, 0
    8f30:	e58d3000 	str	r3, [sp]
    8f34:	e1cd21d0 	ldrd	r2, [sp, #16]
    8f38:	e1cd00d8 	ldrd	r0, [sp, #8]
    8f3c:	eb00003b 	bl	9030 <__kernel_sin>
    8f40:	e2211102 	eor	r1, r1, #-2147483648	; 0x80000000
    8f44:	eaffffdd 	b	8ec0 <cos+0x44>
    8f48:	e1cd21d0 	ldrd	r2, [sp, #16]
    8f4c:	e1cd00d8 	ldrd	r0, [sp, #8]
    8f50:	eb000008 	bl	8f78 <__kernel_cos>
    8f54:	e2211102 	eor	r1, r1, #-2147483648	; 0x80000000
    8f58:	eaffffd8 	b	8ec0 <cos+0x44>
    8f5c:	e3a00000 	mov	r0, #0, 0
    8f60:	e59f100c 	ldr	r1, [pc, #12]	; 8f74 <cos+0xf8>
    8f64:	eaffffd5 	b	8ec0 <cos+0x44>
    8f68:	3fe921fb 	.word	0x3fe921fb
    8f6c:	3e46a09d 	.word	0x3e46a09d
    8f70:	7fefffff 	.word	0x7fefffff
    8f74:	3ff00000 	.word	0x3ff00000

00008f78 <__kernel_cos>:
    8f78:	ec410b17 	vmov	d7, r0, r1
    8f7c:	ec432b12 	vmov	d2, r2, r3
    8f80:	ee274b07 	vmul.f64	d4, d7, d7
    8f84:	ee246b04 	vmul.f64	d6, d4, d4
    8f88:	ed9f3b18 	vldr	d3, [pc, #96]	; 8ff0 <__kernel_cos+0x78>
    8f8c:	ed9f5b19 	vldr	d5, [pc, #100]	; 8ff8 <__kernel_cos+0x80>
    8f90:	ee145b03 	vnmls.f64	d5, d4, d3
    8f94:	ed9f3b19 	vldr	d3, [pc, #100]	; 9000 <__kernel_cos+0x88>
    8f98:	ee053b04 	vmla.f64	d3, d5, d4
    8f9c:	ee266b06 	vmul.f64	d6, d6, d6
    8fa0:	ed9f5b18 	vldr	d5, [pc, #96]	; 9008 <__kernel_cos+0x90>
    8fa4:	ed9f1b19 	vldr	d1, [pc, #100]	; 9010 <__kernel_cos+0x98>
    8fa8:	ee041b05 	vmla.f64	d1, d4, d5
    8fac:	ed9f5b19 	vldr	d5, [pc, #100]	; 9018 <__kernel_cos+0xa0>
    8fb0:	ee115b04 	vnmls.f64	d5, d1, d4
    8fb4:	ee265b05 	vmul.f64	d5, d6, d5
    8fb8:	ee035b04 	vmla.f64	d5, d3, d4
    8fbc:	ed9f1b17 	vldr	d1, [pc, #92]	; 9020 <__kernel_cos+0xa8>
    8fc0:	ee241b01 	vmul.f64	d1, d4, d1
    8fc4:	ed9f6b17 	vldr	d6, [pc, #92]	; 9028 <__kernel_cos+0xb0>
    8fc8:	ee363b41 	vsub.f64	d3, d6, d1
    8fcc:	ee366b43 	vsub.f64	d6, d6, d3
    8fd0:	ee366b41 	vsub.f64	d6, d6, d1
    8fd4:	ee277b02 	vmul.f64	d7, d7, d2
    8fd8:	ee147b05 	vnmls.f64	d7, d4, d5
    8fdc:	ee367b07 	vadd.f64	d7, d6, d7
    8fe0:	ee377b03 	vadd.f64	d7, d7, d3
    8fe4:	ec510b17 	vmov	r0, r1, d7
    8fe8:	e12fff1e 	bx	lr
    8fec:	e320f000 	nop	{0}
    8ff0:	19cb1590 	.word	0x19cb1590
    8ff4:	3efa01a0 	.word	0x3efa01a0
    8ff8:	16c15177 	.word	0x16c15177
    8ffc:	3f56c16c 	.word	0x3f56c16c
    9000:	5555554c 	.word	0x5555554c
    9004:	3fa55555 	.word	0x3fa55555
    9008:	be8838d4 	.word	0xbe8838d4
    900c:	bda8fae9 	.word	0xbda8fae9
    9010:	bdb4b1c4 	.word	0xbdb4b1c4
    9014:	3e21ee9e 	.word	0x3e21ee9e
    9018:	809c52ad 	.word	0x809c52ad
    901c:	3e927e4f 	.word	0x3e927e4f
    9020:	00000000 	.word	0x00000000
    9024:	3fe00000 	.word	0x3fe00000
    9028:	00000000 	.word	0x00000000
    902c:	3ff00000 	.word	0x3ff00000

00009030 <__kernel_sin>:
    9030:	ec410b17 	vmov	d7, r0, r1
    9034:	ec432b14 	vmov	d4, r2, r3
    9038:	ee276b07 	vmul.f64	d6, d7, d7
    903c:	ee262b06 	vmul.f64	d2, d6, d6
    9040:	ed9f5b1a 	vldr	d5, [pc, #104]	; 90b0 <__kernel_sin+0x80>
    9044:	ed9f3b1b 	vldr	d3, [pc, #108]	; 90b8 <__kernel_sin+0x88>
    9048:	ee163b05 	vnmls.f64	d3, d6, d5
    904c:	ed9f5b1b 	vldr	d5, [pc, #108]	; 90c0 <__kernel_sin+0x90>
    9050:	ee035b06 	vmla.f64	d5, d3, d6
    9054:	ee262b02 	vmul.f64	d2, d6, d2
    9058:	ed9f1b1a 	vldr	d1, [pc, #104]	; 90c8 <__kernel_sin+0x98>
    905c:	ed9f3b1b 	vldr	d3, [pc, #108]	; 90d0 <__kernel_sin+0xa0>
    9060:	ee163b01 	vnmls.f64	d3, d6, d1
    9064:	ee025b03 	vmla.f64	d5, d2, d3
    9068:	ee273b06 	vmul.f64	d3, d7, d6
    906c:	e59d3000 	ldr	r3, [sp]
    9070:	e3530000 	cmp	r3, #0, 0
    9074:	1a000004 	bne	908c <__kernel_sin+0x5c>
    9078:	ed9f4b16 	vldr	d4, [pc, #88]	; 90d8 <__kernel_sin+0xa8>
    907c:	ee164b05 	vnmls.f64	d4, d6, d5
    9080:	ee047b03 	vmla.f64	d7, d4, d3
    9084:	ec510b17 	vmov	r0, r1, d7
    9088:	e12fff1e 	bx	lr
    908c:	ee255b03 	vmul.f64	d5, d5, d3
    9090:	ed9f2b12 	vldr	d2, [pc, #72]	; 90e0 <__kernel_sin+0xb0>
    9094:	ee145b02 	vnmls.f64	d5, d4, d2
    9098:	ee154b06 	vnmls.f64	d4, d5, d6
    909c:	ed9f6b0d 	vldr	d6, [pc, #52]	; 90d8 <__kernel_sin+0xa8>
    90a0:	ee034b06 	vmla.f64	d4, d3, d6
    90a4:	ee377b44 	vsub.f64	d7, d7, d4
    90a8:	eafffff5 	b	9084 <__kernel_sin+0x54>
    90ac:	e320f000 	nop	{0}
    90b0:	57b1fe7d 	.word	0x57b1fe7d
    90b4:	3ec71de3 	.word	0x3ec71de3
    90b8:	19c161d5 	.word	0x19c161d5
    90bc:	3f2a01a0 	.word	0x3f2a01a0
    90c0:	1110f8a6 	.word	0x1110f8a6
    90c4:	3f811111 	.word	0x3f811111
    90c8:	5acfd57c 	.word	0x5acfd57c
    90cc:	3de5d93a 	.word	0x3de5d93a
    90d0:	8a2b9ceb 	.word	0x8a2b9ceb
    90d4:	3e5ae5e6 	.word	0x3e5ae5e6
    90d8:	55555549 	.word	0x55555549
    90dc:	3fc55555 	.word	0x3fc55555
    90e0:	00000000 	.word	0x00000000
    90e4:	3fe00000 	.word	0x3fe00000

000090e8 <__ieee754_rem_pio2>:
    90e8:	e92d4030 	push	{r4, r5, lr}
    90ec:	e24dd034 	sub	sp, sp, #52, 0	; 0x34
    90f0:	ec410b17 	vmov	d7, r0, r1
    90f4:	e1a04002 	mov	r4, r2
    90f8:	ee175a90 	vmov	r5, s15
    90fc:	e3c53102 	bic	r3, r5, #-2147483648	; 0x80000000
    9100:	e59f13f8 	ldr	r1, [pc, #1016]	; 9500 <__ieee754_rem_pio2+0x418>
    9104:	e1530001 	cmp	r3, r1
    9108:	ca000034 	bgt	91e0 <__ieee754_rem_pio2+0xf8>
    910c:	e3c514ff 	bic	r1, r5, #-16777216	; 0xff000000
    9110:	e3c1160f 	bic	r1, r1, #15728640	; 0xf00000
    9114:	e59f23e8 	ldr	r2, [pc, #1000]	; 9504 <__ieee754_rem_pio2+0x41c>
    9118:	e1510002 	cmp	r1, r2
    911c:	0a000076 	beq	92fc <__ieee754_rem_pio2+0x214>
    9120:	e59f23e0 	ldr	r2, [pc, #992]	; 9508 <__ieee754_rem_pio2+0x420>
    9124:	e1530002 	cmp	r3, r2
    9128:	ca000016 	bgt	9188 <__ieee754_rem_pio2+0xa0>
    912c:	e3550000 	cmp	r5, #0, 0
    9130:	da00000a 	ble	9160 <__ieee754_rem_pio2+0x78>
    9134:	ed9f6bd3 	vldr	d6, [pc, #844]	; 9488 <__ieee754_rem_pio2+0x3a0>
    9138:	ee377b46 	vsub.f64	d7, d7, d6
    913c:	ed9f6bd3 	vldr	d6, [pc, #844]	; 9490 <__ieee754_rem_pio2+0x3a8>
    9140:	ee375b46 	vsub.f64	d5, d7, d6
    9144:	ed845b00 	vstr	d5, [r4]
    9148:	ee377b45 	vsub.f64	d7, d7, d5
    914c:	ee377b46 	vsub.f64	d7, d7, d6
    9150:	ed847b02 	vstr	d7, [r4, #8]
    9154:	e3a00001 	mov	r0, #1, 0
    9158:	e28dd034 	add	sp, sp, #52, 0	; 0x34
    915c:	e8bd8030 	pop	{r4, r5, pc}
    9160:	ed9f6bc8 	vldr	d6, [pc, #800]	; 9488 <__ieee754_rem_pio2+0x3a0>
    9164:	ee377b06 	vadd.f64	d7, d7, d6
    9168:	ed9f6bc8 	vldr	d6, [pc, #800]	; 9490 <__ieee754_rem_pio2+0x3a8>
    916c:	ee375b06 	vadd.f64	d5, d7, d6
    9170:	ed845b00 	vstr	d5, [r4]
    9174:	ee377b45 	vsub.f64	d7, d7, d5
    9178:	ee377b06 	vadd.f64	d7, d7, d6
    917c:	ed847b02 	vstr	d7, [r4, #8]
    9180:	e3e00000 	mvn	r0, #0, 0
    9184:	eafffff3 	b	9158 <__ieee754_rem_pio2+0x70>
    9188:	e3550000 	cmp	r5, #0, 0
    918c:	da000009 	ble	91b8 <__ieee754_rem_pio2+0xd0>
    9190:	ed9f6bc0 	vldr	d6, [pc, #768]	; 9498 <__ieee754_rem_pio2+0x3b0>
    9194:	ee377b46 	vsub.f64	d7, d7, d6
    9198:	ed9f6bc0 	vldr	d6, [pc, #768]	; 94a0 <__ieee754_rem_pio2+0x3b8>
    919c:	ee375b46 	vsub.f64	d5, d7, d6
    91a0:	ed845b00 	vstr	d5, [r4]
    91a4:	ee377b45 	vsub.f64	d7, d7, d5
    91a8:	ee377b46 	vsub.f64	d7, d7, d6
    91ac:	ed847b02 	vstr	d7, [r4, #8]
    91b0:	e3a00002 	mov	r0, #2, 0
    91b4:	eaffffe7 	b	9158 <__ieee754_rem_pio2+0x70>
    91b8:	ed9f6bb6 	vldr	d6, [pc, #728]	; 9498 <__ieee754_rem_pio2+0x3b0>
    91bc:	ee377b06 	vadd.f64	d7, d7, d6
    91c0:	ed9f6bb6 	vldr	d6, [pc, #728]	; 94a0 <__ieee754_rem_pio2+0x3b8>
    91c4:	ee375b06 	vadd.f64	d5, d7, d6
    91c8:	ed845b00 	vstr	d5, [r4]
    91cc:	ee377b45 	vsub.f64	d7, d7, d5
    91d0:	ee377b06 	vadd.f64	d7, d7, d6
    91d4:	ed847b02 	vstr	d7, [r4, #8]
    91d8:	e3e00001 	mvn	r0, #1, 0
    91dc:	eaffffdd 	b	9158 <__ieee754_rem_pio2+0x70>
    91e0:	e59f2324 	ldr	r2, [pc, #804]	; 950c <__ieee754_rem_pio2+0x424>
    91e4:	e1530002 	cmp	r3, r2
    91e8:	ca000035 	bgt	92c4 <__ieee754_rem_pio2+0x1dc>
    91ec:	e59f231c 	ldr	r2, [pc, #796]	; 9510 <__ieee754_rem_pio2+0x428>
    91f0:	e1530002 	cmp	r3, r2
    91f4:	ca000019 	bgt	9260 <__ieee754_rem_pio2+0x178>
    91f8:	e2422bc9 	sub	r2, r2, #205824	; 0x32400
    91fc:	e2422040 	sub	r2, r2, #64, 0	; 0x40
    9200:	e1530002 	cmp	r3, r2
    9204:	0a00003c 	beq	92fc <__ieee754_rem_pio2+0x214>
    9208:	e3550000 	cmp	r5, #0, 0
    920c:	da000009 	ble	9238 <__ieee754_rem_pio2+0x150>
    9210:	ed9f6ba4 	vldr	d6, [pc, #656]	; 94a8 <__ieee754_rem_pio2+0x3c0>
    9214:	ee377b46 	vsub.f64	d7, d7, d6
    9218:	ed9f6ba4 	vldr	d6, [pc, #656]	; 94b0 <__ieee754_rem_pio2+0x3c8>
    921c:	ee375b46 	vsub.f64	d5, d7, d6
    9220:	ed845b00 	vstr	d5, [r4]
    9224:	ee377b45 	vsub.f64	d7, d7, d5
    9228:	ee377b46 	vsub.f64	d7, d7, d6
    922c:	ed847b02 	vstr	d7, [r4, #8]
    9230:	e3a00003 	mov	r0, #3, 0
    9234:	eaffffc7 	b	9158 <__ieee754_rem_pio2+0x70>
    9238:	ed9f6b9a 	vldr	d6, [pc, #616]	; 94a8 <__ieee754_rem_pio2+0x3c0>
    923c:	ee377b06 	vadd.f64	d7, d7, d6
    9240:	ed9f6b9a 	vldr	d6, [pc, #616]	; 94b0 <__ieee754_rem_pio2+0x3c8>
    9244:	ee375b06 	vadd.f64	d5, d7, d6
    9248:	ed845b00 	vstr	d5, [r4]
    924c:	ee377b45 	vsub.f64	d7, d7, d5
    9250:	ee377b06 	vadd.f64	d7, d7, d6
    9254:	ed847b02 	vstr	d7, [r4, #8]
    9258:	e3e00002 	mvn	r0, #2, 0
    925c:	eaffffbd 	b	9158 <__ieee754_rem_pio2+0x70>
    9260:	e59f22ac 	ldr	r2, [pc, #684]	; 9514 <__ieee754_rem_pio2+0x42c>
    9264:	e1530002 	cmp	r3, r2
    9268:	0a000023 	beq	92fc <__ieee754_rem_pio2+0x214>
    926c:	e3550000 	cmp	r5, #0, 0
    9270:	da000009 	ble	929c <__ieee754_rem_pio2+0x1b4>
    9274:	ed9f6b8f 	vldr	d6, [pc, #572]	; 94b8 <__ieee754_rem_pio2+0x3d0>
    9278:	ee377b46 	vsub.f64	d7, d7, d6
    927c:	ed9f6b8f 	vldr	d6, [pc, #572]	; 94c0 <__ieee754_rem_pio2+0x3d8>
    9280:	ee375b46 	vsub.f64	d5, d7, d6
    9284:	ed845b00 	vstr	d5, [r4]
    9288:	ee377b45 	vsub.f64	d7, d7, d5
    928c:	ee377b46 	vsub.f64	d7, d7, d6
    9290:	ed847b02 	vstr	d7, [r4, #8]
    9294:	e3a00004 	mov	r0, #4, 0
    9298:	eaffffae 	b	9158 <__ieee754_rem_pio2+0x70>
    929c:	ed9f6b85 	vldr	d6, [pc, #532]	; 94b8 <__ieee754_rem_pio2+0x3d0>
    92a0:	ee377b06 	vadd.f64	d7, d7, d6
    92a4:	ed9f6b85 	vldr	d6, [pc, #532]	; 94c0 <__ieee754_rem_pio2+0x3d8>
    92a8:	ee375b06 	vadd.f64	d5, d7, d6
    92ac:	ed845b00 	vstr	d5, [r4]
    92b0:	ee377b45 	vsub.f64	d7, d7, d5
    92b4:	ee377b06 	vadd.f64	d7, d7, d6
    92b8:	ed847b02 	vstr	d7, [r4, #8]
    92bc:	e3e00003 	mvn	r0, #3, 0
    92c0:	eaffffa4 	b	9158 <__ieee754_rem_pio2+0x70>
    92c4:	e59f224c 	ldr	r2, [pc, #588]	; 9518 <__ieee754_rem_pio2+0x430>
    92c8:	e1530002 	cmp	r3, r2
    92cc:	da00000a 	ble	92fc <__ieee754_rem_pio2+0x214>
    92d0:	e59f2244 	ldr	r2, [pc, #580]	; 951c <__ieee754_rem_pio2+0x434>
    92d4:	e1530002 	cmp	r3, r2
    92d8:	ca00003c 	bgt	93d0 <__ieee754_rem_pio2+0x2e8>
    92dc:	e1a02a43 	asr	r2, r3, #20
    92e0:	e2422e41 	sub	r2, r2, #1040	; 0x410
    92e4:	e2422006 	sub	r2, r2, #6, 0
    92e8:	e0431a02 	sub	r1, r3, r2, lsl #20
    92ec:	ee170a10 	vmov	r0, s14
    92f0:	ec410b17 	vmov	d7, r0, r1
    92f4:	e3a03000 	mov	r3, #0, 0
    92f8:	ea000042 	b	9408 <__ieee754_rem_pio2+0x320>
    92fc:	ed9f6b71 	vldr	d6, [pc, #452]	; 94c8 <__ieee754_rem_pio2+0x3e0>
    9300:	ed9f5b72 	vldr	d5, [pc, #456]	; 94d0 <__ieee754_rem_pio2+0x3e8>
    9304:	eeb04b46 	vmov.f64	d4, d6
    9308:	ee074b05 	vmla.f64	d4, d7, d5
    930c:	ee344b46 	vsub.f64	d4, d4, d6
    9310:	eefd6bc4 	vcvt.s32.f64	s13, d4
    9314:	ee160a90 	vmov	r0, s13
    9318:	ed9f6b5a 	vldr	d6, [pc, #360]	; 9488 <__ieee754_rem_pio2+0x3a0>
    931c:	ee047b46 	vmls.f64	d7, d4, d6
    9320:	ed9f6b5a 	vldr	d6, [pc, #360]	; 9490 <__ieee754_rem_pio2+0x3a8>
    9324:	ee246b06 	vmul.f64	d6, d4, d6
    9328:	e1a01a43 	asr	r1, r3, #20
    932c:	ee375b46 	vsub.f64	d5, d7, d6
    9330:	ed845b00 	vstr	d5, [r4]
    9334:	ee152a90 	vmov	r2, s11
    9338:	e1a02a22 	lsr	r2, r2, #20
    933c:	e1a02a82 	lsl	r2, r2, #21
    9340:	e1a02aa2 	lsr	r2, r2, #21
    9344:	e0623a43 	rsb	r3, r2, r3, asr #20
    9348:	e3530010 	cmp	r3, #16, 0
    934c:	da000018 	ble	93b4 <__ieee754_rem_pio2+0x2cc>
    9350:	ed9f5b60 	vldr	d5, [pc, #384]	; 94d8 <__ieee754_rem_pio2+0x3f0>
    9354:	ee245b05 	vmul.f64	d5, d4, d5
    9358:	ee373b45 	vsub.f64	d3, d7, d5
    935c:	ee376b43 	vsub.f64	d6, d7, d3
    9360:	ee366b45 	vsub.f64	d6, d6, d5
    9364:	ed9f7b5d 	vldr	d7, [pc, #372]	; 94e0 <__ieee754_rem_pio2+0x3f8>
    9368:	ee146b07 	vnmls.f64	d6, d4, d7
    936c:	ee337b46 	vsub.f64	d7, d3, d6
    9370:	ed847b00 	vstr	d7, [r4]
    9374:	ee173a90 	vmov	r3, s15
    9378:	e1a03a23 	lsr	r3, r3, #20
    937c:	e1a03a83 	lsl	r3, r3, #21
    9380:	e1a03aa3 	lsr	r3, r3, #21
    9384:	e0413003 	sub	r3, r1, r3
    9388:	e3530031 	cmp	r3, #49, 0	; 0x31
    938c:	da00000d 	ble	93c8 <__ieee754_rem_pio2+0x2e0>
    9390:	ed9f5b54 	vldr	d5, [pc, #336]	; 94e8 <__ieee754_rem_pio2+0x400>
    9394:	ee245b05 	vmul.f64	d5, d4, d5
    9398:	ee337b45 	vsub.f64	d7, d3, d5
    939c:	ee336b47 	vsub.f64	d6, d3, d7
    93a0:	ee366b45 	vsub.f64	d6, d6, d5
    93a4:	ed9f5b51 	vldr	d5, [pc, #324]	; 94f0 <__ieee754_rem_pio2+0x408>
    93a8:	ee146b05 	vnmls.f64	d6, d4, d5
    93ac:	ee375b46 	vsub.f64	d5, d7, d6
    93b0:	ed845b00 	vstr	d5, [r4]
    93b4:	ed945b00 	vldr	d5, [r4]
    93b8:	ee377b45 	vsub.f64	d7, d7, d5
    93bc:	ee376b46 	vsub.f64	d6, d7, d6
    93c0:	ed846b02 	vstr	d6, [r4, #8]
    93c4:	eaffff63 	b	9158 <__ieee754_rem_pio2+0x70>
    93c8:	eeb07b43 	vmov.f64	d7, d3
    93cc:	eafffff8 	b	93b4 <__ieee754_rem_pio2+0x2cc>
    93d0:	ee377b47 	vsub.f64	d7, d7, d7
    93d4:	ed847b02 	vstr	d7, [r4, #8]
    93d8:	ed847b00 	vstr	d7, [r4]
    93dc:	e3a00000 	mov	r0, #0, 0
    93e0:	eaffff5c 	b	9158 <__ieee754_rem_pio2+0x70>
    93e4:	eebd6bc7 	vcvt.s32.f64	s12, d7
    93e8:	eeb86bc6 	vcvt.f64.s32	d6, s12
    93ec:	e28d1030 	add	r1, sp, #48, 0	; 0x30
    93f0:	e0811183 	add	r1, r1, r3, lsl #3
    93f4:	ed016b06 	vstr	d6, [r1, #-24]	; 0xffffffe8
    93f8:	ee377b46 	vsub.f64	d7, d7, d6
    93fc:	ed9f6b3d 	vldr	d6, [pc, #244]	; 94f8 <__ieee754_rem_pio2+0x410>
    9400:	ee277b06 	vmul.f64	d7, d7, d6
    9404:	e2833001 	add	r3, r3, #1, 0
    9408:	e3530001 	cmp	r3, #1, 0
    940c:	dafffff4 	ble	93e4 <__ieee754_rem_pio2+0x2fc>
    9410:	ed8d7b0a 	vstr	d7, [sp, #40]	; 0x28
    9414:	e3a01003 	mov	r1, #3, 0
    9418:	e1a03001 	mov	r3, r1
    941c:	e2411001 	sub	r1, r1, #1, 0
    9420:	e28d0030 	add	r0, sp, #48, 0	; 0x30
    9424:	e0800181 	add	r0, r0, r1, lsl #3
    9428:	ed107b06 	vldr	d7, [r0, #-24]	; 0xffffffe8
    942c:	eeb57b40 	vcmp.f64	d7, #0.0
    9430:	eef1fa10 	vmrs	APSR_nzcv, fpscr
    9434:	0afffff7 	beq	9418 <__ieee754_rem_pio2+0x330>
    9438:	e3a01001 	mov	r1, #1, 0
    943c:	e58d1000 	str	r1, [sp]
    9440:	e28d1008 	add	r1, sp, #8, 0
    9444:	e28d0018 	add	r0, sp, #24, 0
    9448:	eb000034 	bl	9520 <__kernel_rem_pio2>
    944c:	e3550000 	cmp	r5, #0, 0
    9450:	ba000004 	blt	9468 <__ieee754_rem_pio2+0x380>
    9454:	e1cd20d8 	ldrd	r2, [sp, #8]
    9458:	e1c420f0 	strd	r2, [r4]
    945c:	e1cd21d0 	ldrd	r2, [sp, #16]
    9460:	e1c420f8 	strd	r2, [r4, #8]
    9464:	eaffff3b 	b	9158 <__ieee754_rem_pio2+0x70>
    9468:	ed9d7b02 	vldr	d7, [sp, #8]
    946c:	eeb17b47 	vneg.f64	d7, d7
    9470:	ed847b00 	vstr	d7, [r4]
    9474:	ed9d7b04 	vldr	d7, [sp, #16]
    9478:	eeb17b47 	vneg.f64	d7, d7
    947c:	ed847b02 	vstr	d7, [r4, #8]
    9480:	e2600000 	rsb	r0, r0, #0, 0
    9484:	eaffff33 	b	9158 <__ieee754_rem_pio2+0x70>
    9488:	54400000 	.word	0x54400000
    948c:	3ff921fb 	.word	0x3ff921fb
    9490:	1a626331 	.word	0x1a626331
    9494:	3dd0b461 	.word	0x3dd0b461
    9498:	54400000 	.word	0x54400000
    949c:	400921fb 	.word	0x400921fb
    94a0:	1a626331 	.word	0x1a626331
    94a4:	3de0b461 	.word	0x3de0b461
    94a8:	7f300000 	.word	0x7f300000
    94ac:	4012d97c 	.word	0x4012d97c
    94b0:	a79394ca 	.word	0xa79394ca
    94b4:	3de90e91 	.word	0x3de90e91
    94b8:	54400000 	.word	0x54400000
    94bc:	401921fb 	.word	0x401921fb
    94c0:	1a626331 	.word	0x1a626331
    94c4:	3df0b461 	.word	0x3df0b461
    94c8:	00000000 	.word	0x00000000
    94cc:	43380000 	.word	0x43380000
    94d0:	6dc9c883 	.word	0x6dc9c883
    94d4:	3fe45f30 	.word	0x3fe45f30
    94d8:	1a600000 	.word	0x1a600000
    94dc:	3dd0b461 	.word	0x3dd0b461
    94e0:	2e037073 	.word	0x2e037073
    94e4:	3ba3198a 	.word	0x3ba3198a
    94e8:	2e000000 	.word	0x2e000000
    94ec:	3ba3198a 	.word	0x3ba3198a
    94f0:	252049c1 	.word	0x252049c1
    94f4:	397b839a 	.word	0x397b839a
    94f8:	00000000 	.word	0x00000000
    94fc:	41700000 	.word	0x41700000
    9500:	400f6a7a 	.word	0x400f6a7a
    9504:	000921fb 	.word	0x000921fb
    9508:	4002d97c 	.word	0x4002d97c
    950c:	401c463b 	.word	0x401c463b
    9510:	4015fdbc 	.word	0x4015fdbc
    9514:	401921fb 	.word	0x401921fb
    9518:	413921fa 	.word	0x413921fa
    951c:	7fefffff 	.word	0x7fefffff

00009520 <__kernel_rem_pio2>:
    9520:	e92d4ff0 	push	{r4, r5, r6, r7, r8, r9, sl, fp, lr}
    9524:	ed2d8b04 	vpush	{d8-d9}
    9528:	e24ddf8d 	sub	sp, sp, #564	; 0x234
    952c:	e1a05000 	mov	r5, r0
    9530:	e1a0b001 	mov	fp, r1
    9534:	e1a0a002 	mov	sl, r2
    9538:	e59f2450 	ldr	r2, [pc, #1104]	; 9990 <__kernel_rem_pio2+0x470>
    953c:	e59d1268 	ldr	r1, [sp, #616]	; 0x268
    9540:	e7927101 	ldr	r7, [r2, r1, lsl #2]
    9544:	e2434001 	sub	r4, r3, #1, 0
    9548:	e24a3003 	sub	r3, sl, #3, 0
    954c:	e59f8440 	ldr	r8, [pc, #1088]	; 9994 <__kernel_rem_pio2+0x474>
    9550:	e0c82398 	smull	r2, r8, r8, r3
    9554:	e1a03fc3 	asr	r3, r3, #31
    9558:	e0638148 	rsb	r8, r3, r8, asr #2
    955c:	e37a0014 	cmn	sl, #20, 0
    9560:	b3a08000 	movlt	r8, #0, 0
    9564:	e2883001 	add	r3, r8, #1, 0
    9568:	e0433103 	sub	r3, r3, r3, lsl #2
    956c:	e08aa183 	add	sl, sl, r3, lsl #3
    9570:	e0482004 	sub	r2, r8, r4
    9574:	e0870004 	add	r0, r7, r4
    9578:	e3a03000 	mov	r3, #0, 0
    957c:	ea000005 	b	9598 <__kernel_rem_pio2+0x78>
    9580:	ed9f7bf4 	vldr	d7, [pc, #976]	; 9958 <__kernel_rem_pio2+0x438>
    9584:	e28d1e23 	add	r1, sp, #560	; 0x230
    9588:	e0811183 	add	r1, r1, r3, lsl #3
    958c:	ed017b3c 	vstr	d7, [r1, #-240]	; 0xffffff10
    9590:	e2833001 	add	r3, r3, #1, 0
    9594:	e2822001 	add	r2, r2, #1, 0
    9598:	e1530000 	cmp	r3, r0
    959c:	ca000006 	bgt	95bc <__kernel_rem_pio2+0x9c>
    95a0:	e3520000 	cmp	r2, #0, 0
    95a4:	bafffff5 	blt	9580 <__kernel_rem_pio2+0x60>
    95a8:	e59f13e0 	ldr	r1, [pc, #992]	; 9990 <__kernel_rem_pio2+0x470>
    95ac:	e0811102 	add	r1, r1, r2, lsl #2
    95b0:	ed917a04 	vldr	s14, [r1, #16]
    95b4:	eeb87bc7 	vcvt.f64.s32	d7, s14
    95b8:	eafffff1 	b	9584 <__kernel_rem_pio2+0x64>
    95bc:	e3a01000 	mov	r1, #0, 0
    95c0:	ea00000e 	b	9600 <__kernel_rem_pio2+0xe0>
    95c4:	e0853182 	add	r3, r5, r2, lsl #3
    95c8:	ed935b00 	vldr	d5, [r3]
    95cc:	e0813004 	add	r3, r1, r4
    95d0:	e0433002 	sub	r3, r3, r2
    95d4:	e28d0e23 	add	r0, sp, #560	; 0x230
    95d8:	e0803183 	add	r3, r0, r3, lsl #3
    95dc:	ed136b3c 	vldr	d6, [r3, #-240]	; 0xffffff10
    95e0:	ee057b06 	vmla.f64	d7, d5, d6
    95e4:	e2822001 	add	r2, r2, #1, 0
    95e8:	e1520004 	cmp	r2, r4
    95ec:	dafffff4 	ble	95c4 <__kernel_rem_pio2+0xa4>
    95f0:	e28d3e23 	add	r3, sp, #560	; 0x230
    95f4:	e0833181 	add	r3, r3, r1, lsl #3
    95f8:	ed037b8c 	vstr	d7, [r3, #-560]	; 0xfffffdd0
    95fc:	e2811001 	add	r1, r1, #1, 0
    9600:	e1510007 	cmp	r1, r7
    9604:	dd9f7bd3 	vldrle	d7, [pc, #844]	; 9958 <__kernel_rem_pio2+0x438>
    9608:	d3a02000 	movle	r2, #0, 0
    960c:	dafffff5 	ble	95e8 <__kernel_rem_pio2+0xc8>
    9610:	e1a06007 	mov	r6, r7
    9614:	ea0000b4 	b	98ec <__kernel_rem_pio2+0x3cc>
    9618:	ed9f6bd0 	vldr	d6, [pc, #832]	; 9960 <__kernel_rem_pio2+0x440>
    961c:	ee276b06 	vmul.f64	d6, d7, d6
    9620:	eebd6bc6 	vcvt.s32.f64	s12, d6
    9624:	eeb86bc6 	vcvt.f64.s32	d6, s12
    9628:	ed9f5bce 	vldr	d5, [pc, #824]	; 9968 <__kernel_rem_pio2+0x448>
    962c:	ee067b45 	vmls.f64	d7, d6, d5
    9630:	eebd7bc7 	vcvt.s32.f64	s14, d7
    9634:	e28d1e23 	add	r1, sp, #560	; 0x230
    9638:	e0811102 	add	r1, r1, r2, lsl #2
    963c:	ed017a14 	vstr	s14, [r1, #-80]	; 0xffffffb0
    9640:	e2433001 	sub	r3, r3, #1, 0
    9644:	e28d1e23 	add	r1, sp, #560	; 0x230
    9648:	e0811183 	add	r1, r1, r3, lsl #3
    964c:	ed117b8c 	vldr	d7, [r1, #-560]	; 0xfffffdd0
    9650:	ee377b06 	vadd.f64	d7, d7, d6
    9654:	e2822001 	add	r2, r2, #1, 0
    9658:	e3530000 	cmp	r3, #0, 0
    965c:	caffffed 	bgt	9618 <__kernel_rem_pio2+0xf8>
    9660:	e1a0200a 	mov	r2, sl
    9664:	ec510b17 	vmov	r0, r1, d7
    9668:	eb00018c 	bl	9ca0 <scalbn>
    966c:	ec410b18 	vmov	d8, r0, r1
    9670:	ed9f7bbe 	vldr	d7, [pc, #760]	; 9970 <__kernel_rem_pio2+0x450>
    9674:	ee287b07 	vmul.f64	d7, d8, d7
    9678:	ec510b17 	vmov	r0, r1, d7
    967c:	eb0001eb 	bl	9e30 <floor>
    9680:	ec410b16 	vmov	d6, r0, r1
    9684:	ed9f7bbb 	vldr	d7, [pc, #748]	; 9978 <__kernel_rem_pio2+0x458>
    9688:	ee068b47 	vmls.f64	d8, d6, d7
    968c:	eebd9bc8 	vcvt.s32.f64	s18, d8
    9690:	eeb87bc9 	vcvt.f64.s32	d7, s18
    9694:	ee388b47 	vsub.f64	d8, d8, d7
    9698:	e35a0000 	cmp	sl, #0, 0
    969c:	da000014 	ble	96f4 <__kernel_rem_pio2+0x1d4>
    96a0:	e2463001 	sub	r3, r6, #1, 0
    96a4:	e28d2e23 	add	r2, sp, #560	; 0x230
    96a8:	e0823103 	add	r3, r2, r3, lsl #2
    96ac:	e5139050 	ldr	r9, [r3, #-80]	; 0xffffffb0
    96b0:	e26a2018 	rsb	r2, sl, #24, 0
    96b4:	e1a01259 	asr	r1, r9, r2
    96b8:	ee190a10 	vmov	r0, s18
    96bc:	e0800001 	add	r0, r0, r1
    96c0:	ee090a10 	vmov	s18, r0
    96c4:	e0499211 	sub	r9, r9, r1, lsl r2
    96c8:	e5039050 	str	r9, [r3, #-80]	; 0xffffffb0
    96cc:	e26a3017 	rsb	r3, sl, #23, 0
    96d0:	e1a09359 	asr	r9, r9, r3
    96d4:	e3590000 	cmp	r9, #0, 0
    96d8:	ca000013 	bgt	972c <__kernel_rem_pio2+0x20c>
    96dc:	eeb58b40 	vcmp.f64	d8, #0.0
    96e0:	eef1fa10 	vmrs	APSR_nzcv, fpscr
    96e4:	1a000086 	bne	9904 <__kernel_rem_pio2+0x3e4>
    96e8:	e2463001 	sub	r3, r6, #1, 0
    96ec:	e3a0e000 	mov	lr, #0, 0
    96f0:	ea000050 	b	9838 <__kernel_rem_pio2+0x318>
    96f4:	e35a0000 	cmp	sl, #0, 0
    96f8:	1a000005 	bne	9714 <__kernel_rem_pio2+0x1f4>
    96fc:	e2463001 	sub	r3, r6, #1, 0
    9700:	e28d2e23 	add	r2, sp, #560	; 0x230
    9704:	e0823103 	add	r3, r2, r3, lsl #2
    9708:	e5139050 	ldr	r9, [r3, #-80]	; 0xffffffb0
    970c:	e1a09bc9 	asr	r9, r9, #23
    9710:	eaffffef 	b	96d4 <__kernel_rem_pio2+0x1b4>
    9714:	ed9f7b99 	vldr	d7, [pc, #612]	; 9980 <__kernel_rem_pio2+0x460>
    9718:	eeb48bc7 	vcmpe.f64	d8, d7
    971c:	eef1fa10 	vmrs	APSR_nzcv, fpscr
    9720:	b3a09000 	movlt	r9, #0, 0
    9724:	baffffec 	blt	96dc <__kernel_rem_pio2+0x1bc>
    9728:	e3a09002 	mov	r9, #2, 0
    972c:	ee193a10 	vmov	r3, s18
    9730:	e2833001 	add	r3, r3, #1, 0
    9734:	ee093a10 	vmov	s18, r3
    9738:	e3a03000 	mov	r3, #0, 0
    973c:	e1a01003 	mov	r1, r3
    9740:	ea000006 	b	9760 <__kernel_rem_pio2+0x240>
    9744:	e26228ff 	rsb	r2, r2, #16711680	; 0xff0000
    9748:	e2822cff 	add	r2, r2, #65280	; 0xff00
    974c:	e28220ff 	add	r2, r2, #255, 0	; 0xff
    9750:	e28d0e23 	add	r0, sp, #560	; 0x230
    9754:	e0800103 	add	r0, r0, r3, lsl #2
    9758:	e5002050 	str	r2, [r0, #-80]	; 0xffffffb0
    975c:	e2833001 	add	r3, r3, #1, 0
    9760:	e1560003 	cmp	r6, r3
    9764:	da00000c 	ble	979c <__kernel_rem_pio2+0x27c>
    9768:	e28d2e23 	add	r2, sp, #560	; 0x230
    976c:	e0822103 	add	r2, r2, r3, lsl #2
    9770:	e5122050 	ldr	r2, [r2, #-80]	; 0xffffffb0
    9774:	e3510000 	cmp	r1, #0, 0
    9778:	1afffff1 	bne	9744 <__kernel_rem_pio2+0x224>
    977c:	e3520000 	cmp	r2, #0, 0
    9780:	0afffff5 	beq	975c <__kernel_rem_pio2+0x23c>
    9784:	e2622401 	rsb	r2, r2, #16777216	; 0x1000000
    9788:	e28d1e23 	add	r1, sp, #560	; 0x230
    978c:	e0811103 	add	r1, r1, r3, lsl #2
    9790:	e5012050 	str	r2, [r1, #-80]	; 0xffffffb0
    9794:	e3a01001 	mov	r1, #1, 0
    9798:	eaffffef 	b	975c <__kernel_rem_pio2+0x23c>
    979c:	e35a0000 	cmp	sl, #0, 0
    97a0:	da000003 	ble	97b4 <__kernel_rem_pio2+0x294>
    97a4:	e35a0001 	cmp	sl, #1, 0
    97a8:	0a00000d 	beq	97e4 <__kernel_rem_pio2+0x2c4>
    97ac:	e35a0002 	cmp	sl, #2, 0
    97b0:	0a000013 	beq	9804 <__kernel_rem_pio2+0x2e4>
    97b4:	e3590002 	cmp	r9, #2, 0
    97b8:	1affffc7 	bne	96dc <__kernel_rem_pio2+0x1bc>
    97bc:	ed9f7b71 	vldr	d7, [pc, #452]	; 9988 <__kernel_rem_pio2+0x468>
    97c0:	ee378b48 	vsub.f64	d8, d7, d8
    97c4:	e3510000 	cmp	r1, #0, 0
    97c8:	0affffc3 	beq	96dc <__kernel_rem_pio2+0x1bc>
    97cc:	e1a0200a 	mov	r2, sl
    97d0:	ec510b17 	vmov	r0, r1, d7
    97d4:	eb000131 	bl	9ca0 <scalbn>
    97d8:	ec410b17 	vmov	d7, r0, r1
    97dc:	ee388b47 	vsub.f64	d8, d8, d7
    97e0:	eaffffbd 	b	96dc <__kernel_rem_pio2+0x1bc>
    97e4:	e2462001 	sub	r2, r6, #1, 0
    97e8:	e28d3e23 	add	r3, sp, #560	; 0x230
    97ec:	e0832102 	add	r2, r3, r2, lsl #2
    97f0:	e5123050 	ldr	r3, [r2, #-80]	; 0xffffffb0
    97f4:	e3c334ff 	bic	r3, r3, #-16777216	; 0xff000000
    97f8:	e3c33502 	bic	r3, r3, #8388608	; 0x800000
    97fc:	e5023050 	str	r3, [r2, #-80]	; 0xffffffb0
    9800:	eaffffeb 	b	97b4 <__kernel_rem_pio2+0x294>
    9804:	e2462001 	sub	r2, r6, #1, 0
    9808:	e28d3e23 	add	r3, sp, #560	; 0x230
    980c:	e0832102 	add	r2, r3, r2, lsl #2
    9810:	e5123050 	ldr	r3, [r2, #-80]	; 0xffffffb0
    9814:	e3c334ff 	bic	r3, r3, #-16777216	; 0xff000000
    9818:	e3c33503 	bic	r3, r3, #12582912	; 0xc00000
    981c:	e5023050 	str	r3, [r2, #-80]	; 0xffffffb0
    9820:	eaffffe3 	b	97b4 <__kernel_rem_pio2+0x294>
    9824:	e28d2e23 	add	r2, sp, #560	; 0x230
    9828:	e0822103 	add	r2, r2, r3, lsl #2
    982c:	e5122050 	ldr	r2, [r2, #-80]	; 0xffffffb0
    9830:	e18ee002 	orr	lr, lr, r2
    9834:	e2433001 	sub	r3, r3, #1, 0
    9838:	e1530007 	cmp	r3, r7
    983c:	aafffff8 	bge	9824 <__kernel_rem_pio2+0x304>
    9840:	e35e0000 	cmp	lr, #0, 0
    9844:	1a00002e 	bne	9904 <__kernel_rem_pio2+0x3e4>
    9848:	e3a0c001 	mov	ip, #1, 0
    984c:	ea000000 	b	9854 <__kernel_rem_pio2+0x334>
    9850:	e28cc001 	add	ip, ip, #1, 0
    9854:	e047300c 	sub	r3, r7, ip
    9858:	e28d2e23 	add	r2, sp, #560	; 0x230
    985c:	e0823103 	add	r3, r2, r3, lsl #2
    9860:	e5133050 	ldr	r3, [r3, #-80]	; 0xffffffb0
    9864:	e3530000 	cmp	r3, #0, 0
    9868:	0afffff8 	beq	9850 <__kernel_rem_pio2+0x330>
    986c:	e2860001 	add	r0, r6, #1, 0
    9870:	ea00000d 	b	98ac <__kernel_rem_pio2+0x38c>
    9874:	e0852183 	add	r2, r5, r3, lsl #3
    9878:	ed925b00 	vldr	d5, [r2]
    987c:	e0412003 	sub	r2, r1, r3
    9880:	e28d9e23 	add	r9, sp, #560	; 0x230
    9884:	e0892182 	add	r2, r9, r2, lsl #3
    9888:	ed126b3c 	vldr	d6, [r2, #-240]	; 0xffffff10
    988c:	ee057b06 	vmla.f64	d7, d5, d6
    9890:	e2833001 	add	r3, r3, #1, 0
    9894:	e1530004 	cmp	r3, r4
    9898:	dafffff5 	ble	9874 <__kernel_rem_pio2+0x354>
    989c:	e28d3e23 	add	r3, sp, #560	; 0x230
    98a0:	e0833180 	add	r3, r3, r0, lsl #3
    98a4:	ed037b8c 	vstr	d7, [r3, #-560]	; 0xfffffdd0
    98a8:	e2800001 	add	r0, r0, #1, 0
    98ac:	e086300c 	add	r3, r6, ip
    98b0:	e1530000 	cmp	r3, r0
    98b4:	ba00000b 	blt	98e8 <__kernel_rem_pio2+0x3c8>
    98b8:	e0883000 	add	r3, r8, r0
    98bc:	e59f20cc 	ldr	r2, [pc, #204]	; 9990 <__kernel_rem_pio2+0x470>
    98c0:	e0823103 	add	r3, r2, r3, lsl #2
    98c4:	ed937a04 	vldr	s14, [r3, #16]
    98c8:	e0801004 	add	r1, r0, r4
    98cc:	eeb87bc7 	vcvt.f64.s32	d7, s14
    98d0:	e28d3e23 	add	r3, sp, #560	; 0x230
    98d4:	e0833181 	add	r3, r3, r1, lsl #3
    98d8:	ed037b3c 	vstr	d7, [r3, #-240]	; 0xffffff10
    98dc:	e1a0300e 	mov	r3, lr
    98e0:	ed9f7b1c 	vldr	d7, [pc, #112]	; 9958 <__kernel_rem_pio2+0x438>
    98e4:	eaffffea 	b	9894 <__kernel_rem_pio2+0x374>
    98e8:	e1a06003 	mov	r6, r3
    98ec:	e28d3e23 	add	r3, sp, #560	; 0x230
    98f0:	e0833186 	add	r3, r3, r6, lsl #3
    98f4:	ed137b8c 	vldr	d7, [r3, #-560]	; 0xfffffdd0
    98f8:	e1a03006 	mov	r3, r6
    98fc:	e3a02000 	mov	r2, #0, 0
    9900:	eaffff54 	b	9658 <__kernel_rem_pio2+0x138>
    9904:	eeb58b40 	vcmp.f64	d8, #0.0
    9908:	eef1fa10 	vmrs	APSR_nzcv, fpscr
    990c:	1a000022 	bne	999c <__kernel_rem_pio2+0x47c>
    9910:	e2466001 	sub	r6, r6, #1, 0
    9914:	e24aa018 	sub	sl, sl, #24, 0
    9918:	ea000001 	b	9924 <__kernel_rem_pio2+0x404>
    991c:	e2466001 	sub	r6, r6, #1, 0
    9920:	e24aa018 	sub	sl, sl, #24, 0
    9924:	e28d3e23 	add	r3, sp, #560	; 0x230
    9928:	e0833106 	add	r3, r3, r6, lsl #2
    992c:	e5133050 	ldr	r3, [r3, #-80]	; 0xffffffb0
    9930:	e3530000 	cmp	r3, #0, 0
    9934:	0afffff8 	beq	991c <__kernel_rem_pio2+0x3fc>
    9938:	e1a0200a 	mov	r2, sl
    993c:	e3a00000 	mov	r0, #0, 0
    9940:	e59f1050 	ldr	r1, [pc, #80]	; 9998 <__kernel_rem_pio2+0x478>
    9944:	eb0000d5 	bl	9ca0 <scalbn>
    9948:	ec410b16 	vmov	d6, r0, r1
    994c:	e1a03006 	mov	r3, r6
    9950:	ea000039 	b	9a3c <__kernel_rem_pio2+0x51c>
    9954:	e320f000 	nop	{0}
	...
    9964:	3e700000 	.word	0x3e700000
    9968:	00000000 	.word	0x00000000
    996c:	41700000 	.word	0x41700000
    9970:	00000000 	.word	0x00000000
    9974:	3fc00000 	.word	0x3fc00000
    9978:	00000000 	.word	0x00000000
    997c:	40200000 	.word	0x40200000
    9980:	00000000 	.word	0x00000000
    9984:	3fe00000 	.word	0x3fe00000
    9988:	00000000 	.word	0x00000000
    998c:	3ff00000 	.word	0x3ff00000
    9990:	0000b2f8 	.word	0x0000b2f8
    9994:	2aaaaaab 	.word	0x2aaaaaab
    9998:	3ff00000 	.word	0x3ff00000
    999c:	e26a2000 	rsb	r2, sl, #0, 0
    99a0:	ec510b18 	vmov	r0, r1, d8
    99a4:	eb0000bd 	bl	9ca0 <scalbn>
    99a8:	ec410b17 	vmov	d7, r0, r1
    99ac:	ed9f6bb3 	vldr	d6, [pc, #716]	; 9c80 <__kernel_rem_pio2+0x760>
    99b0:	eeb47bc6 	vcmpe.f64	d7, d6
    99b4:	eef1fa10 	vmrs	APSR_nzcv, fpscr
    99b8:	ba00000f 	blt	99fc <__kernel_rem_pio2+0x4dc>
    99bc:	ed9f6bb1 	vldr	d6, [pc, #708]	; 9c88 <__kernel_rem_pio2+0x768>
    99c0:	ee276b06 	vmul.f64	d6, d7, d6
    99c4:	eebd6bc6 	vcvt.s32.f64	s12, d6
    99c8:	eeb84bc6 	vcvt.f64.s32	d4, s12
    99cc:	ed9f5bab 	vldr	d5, [pc, #684]	; 9c80 <__kernel_rem_pio2+0x760>
    99d0:	ee047b45 	vmls.f64	d7, d4, d5
    99d4:	eebd7bc7 	vcvt.s32.f64	s14, d7
    99d8:	e28d3e23 	add	r3, sp, #560	; 0x230
    99dc:	e0833106 	add	r3, r3, r6, lsl #2
    99e0:	ed037a14 	vstr	s14, [r3, #-80]	; 0xffffffb0
    99e4:	e2866001 	add	r6, r6, #1, 0
    99e8:	e28aa018 	add	sl, sl, #24, 0
    99ec:	e28d3e23 	add	r3, sp, #560	; 0x230
    99f0:	e0833106 	add	r3, r3, r6, lsl #2
    99f4:	ed036a14 	vstr	s12, [r3, #-80]	; 0xffffffb0
    99f8:	eaffffce 	b	9938 <__kernel_rem_pio2+0x418>
    99fc:	eebd7bc7 	vcvt.s32.f64	s14, d7
    9a00:	e28d3e23 	add	r3, sp, #560	; 0x230
    9a04:	e0833106 	add	r3, r3, r6, lsl #2
    9a08:	ed037a14 	vstr	s14, [r3, #-80]	; 0xffffffb0
    9a0c:	eaffffc9 	b	9938 <__kernel_rem_pio2+0x418>
    9a10:	e28d2e23 	add	r2, sp, #560	; 0x230
    9a14:	e0822103 	add	r2, r2, r3, lsl #2
    9a18:	ed127a14 	vldr	s14, [r2, #-80]	; 0xffffffb0
    9a1c:	eeb87bc7 	vcvt.f64.s32	d7, s14
    9a20:	ee277b06 	vmul.f64	d7, d7, d6
    9a24:	e28d2e23 	add	r2, sp, #560	; 0x230
    9a28:	e0822183 	add	r2, r2, r3, lsl #3
    9a2c:	ed027b8c 	vstr	d7, [r2, #-560]	; 0xfffffdd0
    9a30:	ed9f7b94 	vldr	d7, [pc, #592]	; 9c88 <__kernel_rem_pio2+0x768>
    9a34:	ee266b07 	vmul.f64	d6, d6, d7
    9a38:	e2433001 	sub	r3, r3, #1, 0
    9a3c:	e3530000 	cmp	r3, #0, 0
    9a40:	aafffff2 	bge	9a10 <__kernel_rem_pio2+0x4f0>
    9a44:	e1a01006 	mov	r1, r6
    9a48:	ea000012 	b	9a98 <__kernel_rem_pio2+0x578>
    9a4c:	e59f2244 	ldr	r2, [pc, #580]	; 9c98 <__kernel_rem_pio2+0x778>
    9a50:	e0822183 	add	r2, r2, r3, lsl #3
    9a54:	ed925b46 	vldr	d5, [r2, #280]	; 0x118
    9a58:	e0812003 	add	r2, r1, r3
    9a5c:	e28d0e23 	add	r0, sp, #560	; 0x230
    9a60:	e0802182 	add	r2, r0, r2, lsl #3
    9a64:	ed126b8c 	vldr	d6, [r2, #-560]	; 0xfffffdd0
    9a68:	ee057b06 	vmla.f64	d7, d5, d6
    9a6c:	e2833001 	add	r3, r3, #1, 0
    9a70:	e1530007 	cmp	r3, r7
    9a74:	ca000002 	bgt	9a84 <__kernel_rem_pio2+0x564>
    9a78:	e0462001 	sub	r2, r6, r1
    9a7c:	e1520003 	cmp	r2, r3
    9a80:	aafffff1 	bge	9a4c <__kernel_rem_pio2+0x52c>
    9a84:	e0463001 	sub	r3, r6, r1
    9a88:	e28d2e23 	add	r2, sp, #560	; 0x230
    9a8c:	e0823183 	add	r3, r2, r3, lsl #3
    9a90:	ed037b64 	vstr	d7, [r3, #-400]	; 0xfffffe70
    9a94:	e2411001 	sub	r1, r1, #1, 0
    9a98:	e3510000 	cmp	r1, #0, 0
    9a9c:	ad9f7b7b 	vldrge	d7, [pc, #492]	; 9c90 <__kernel_rem_pio2+0x770>
    9aa0:	a3a03000 	movge	r3, #0, 0
    9aa4:	aafffff1 	bge	9a70 <__kernel_rem_pio2+0x550>
    9aa8:	e59d3268 	ldr	r3, [sp, #616]	; 0x268
    9aac:	e3530002 	cmp	r3, #2, 0
    9ab0:	ca000004 	bgt	9ac8 <__kernel_rem_pio2+0x5a8>
    9ab4:	e3530000 	cmp	r3, #0, 0
    9ab8:	ca000025 	bgt	9b54 <__kernel_rem_pio2+0x634>
    9abc:	1a000010 	bne	9b04 <__kernel_rem_pio2+0x5e4>
    9ac0:	ed9f7b72 	vldr	d7, [pc, #456]	; 9c90 <__kernel_rem_pio2+0x770>
    9ac4:	ea000009 	b	9af0 <__kernel_rem_pio2+0x5d0>
    9ac8:	e59d3268 	ldr	r3, [sp, #616]	; 0x268
    9acc:	e3530003 	cmp	r3, #3, 0
    9ad0:	1a00000b 	bne	9b04 <__kernel_rem_pio2+0x5e4>
    9ad4:	e1a03006 	mov	r3, r6
    9ad8:	ea00003a 	b	9bc8 <__kernel_rem_pio2+0x6a8>
    9adc:	e28d3e23 	add	r3, sp, #560	; 0x230
    9ae0:	e0833186 	add	r3, r3, r6, lsl #3
    9ae4:	ed136b64 	vldr	d6, [r3, #-400]	; 0xfffffe70
    9ae8:	ee377b06 	vadd.f64	d7, d7, d6
    9aec:	e2466001 	sub	r6, r6, #1, 0
    9af0:	e3560000 	cmp	r6, #0, 0
    9af4:	aafffff8 	bge	9adc <__kernel_rem_pio2+0x5bc>
    9af8:	e3590000 	cmp	r9, #0, 0
    9afc:	1eb17b47 	vnegne.f64	d7, d7
    9b00:	ed8b7b00 	vstr	d7, [fp]
    9b04:	ee193a10 	vmov	r3, s18
    9b08:	e2030007 	and	r0, r3, #7, 0
    9b0c:	e28ddf8d 	add	sp, sp, #564	; 0x234
    9b10:	ecbd8b04 	vpop	{d8-d9}
    9b14:	e8bd8ff0 	pop	{r4, r5, r6, r7, r8, r9, sl, fp, pc}
    9b18:	e28d2e23 	add	r2, sp, #560	; 0x230
    9b1c:	e0822183 	add	r2, r2, r3, lsl #3
    9b20:	ed127b64 	vldr	d7, [r2, #-400]	; 0xfffffe70
    9b24:	ee366b07 	vadd.f64	d6, d6, d7
    9b28:	e2433001 	sub	r3, r3, #1, 0
    9b2c:	e3530000 	cmp	r3, #0, 0
    9b30:	aafffff8 	bge	9b18 <__kernel_rem_pio2+0x5f8>
    9b34:	e3590000 	cmp	r9, #0, 0
    9b38:	0a000008 	beq	9b60 <__kernel_rem_pio2+0x640>
    9b3c:	eeb17b46 	vneg.f64	d7, d6
    9b40:	ed8b7b00 	vstr	d7, [fp]
    9b44:	ed9d7b28 	vldr	d7, [sp, #160]	; 0xa0
    9b48:	ee377b46 	vsub.f64	d7, d7, d6
    9b4c:	e3a03001 	mov	r3, #1, 0
    9b50:	ea000009 	b	9b7c <__kernel_rem_pio2+0x65c>
    9b54:	e1a03006 	mov	r3, r6
    9b58:	ed9f6b4c 	vldr	d6, [pc, #304]	; 9c90 <__kernel_rem_pio2+0x770>
    9b5c:	eafffff2 	b	9b2c <__kernel_rem_pio2+0x60c>
    9b60:	eeb07b46 	vmov.f64	d7, d6
    9b64:	eafffff5 	b	9b40 <__kernel_rem_pio2+0x620>
    9b68:	e28d2e23 	add	r2, sp, #560	; 0x230
    9b6c:	e0822183 	add	r2, r2, r3, lsl #3
    9b70:	ed126b64 	vldr	d6, [r2, #-400]	; 0xfffffe70
    9b74:	ee377b06 	vadd.f64	d7, d7, d6
    9b78:	e2833001 	add	r3, r3, #1, 0
    9b7c:	e1560003 	cmp	r6, r3
    9b80:	aafffff8 	bge	9b68 <__kernel_rem_pio2+0x648>
    9b84:	e3590000 	cmp	r9, #0, 0
    9b88:	1eb17b47 	vnegne.f64	d7, d7
    9b8c:	ed8b7b02 	vstr	d7, [fp, #8]
    9b90:	eaffffdb 	b	9b04 <__kernel_rem_pio2+0x5e4>
    9b94:	e2432001 	sub	r2, r3, #1, 0
    9b98:	e28d1e23 	add	r1, sp, #560	; 0x230
    9b9c:	e0811182 	add	r1, r1, r2, lsl #3
    9ba0:	ed116b64 	vldr	d6, [r1, #-400]	; 0xfffffe70
    9ba4:	e28d0e23 	add	r0, sp, #560	; 0x230
    9ba8:	e0803183 	add	r3, r0, r3, lsl #3
    9bac:	ed137b64 	vldr	d7, [r3, #-400]	; 0xfffffe70
    9bb0:	ee365b07 	vadd.f64	d5, d6, d7
    9bb4:	ee366b45 	vsub.f64	d6, d6, d5
    9bb8:	ee377b06 	vadd.f64	d7, d7, d6
    9bbc:	ed037b64 	vstr	d7, [r3, #-400]	; 0xfffffe70
    9bc0:	ed015b64 	vstr	d5, [r1, #-400]	; 0xfffffe70
    9bc4:	e1a03002 	mov	r3, r2
    9bc8:	e3530000 	cmp	r3, #0, 0
    9bcc:	cafffff0 	bgt	9b94 <__kernel_rem_pio2+0x674>
    9bd0:	e1a03006 	mov	r3, r6
    9bd4:	ea00000c 	b	9c0c <__kernel_rem_pio2+0x6ec>
    9bd8:	e2432001 	sub	r2, r3, #1, 0
    9bdc:	e28d1e23 	add	r1, sp, #560	; 0x230
    9be0:	e0811182 	add	r1, r1, r2, lsl #3
    9be4:	ed116b64 	vldr	d6, [r1, #-400]	; 0xfffffe70
    9be8:	e28d0e23 	add	r0, sp, #560	; 0x230
    9bec:	e0803183 	add	r3, r0, r3, lsl #3
    9bf0:	ed137b64 	vldr	d7, [r3, #-400]	; 0xfffffe70
    9bf4:	ee365b07 	vadd.f64	d5, d6, d7
    9bf8:	ee366b45 	vsub.f64	d6, d6, d5
    9bfc:	ee377b06 	vadd.f64	d7, d7, d6
    9c00:	ed037b64 	vstr	d7, [r3, #-400]	; 0xfffffe70
    9c04:	ed015b64 	vstr	d5, [r1, #-400]	; 0xfffffe70
    9c08:	e1a03002 	mov	r3, r2
    9c0c:	e3530001 	cmp	r3, #1, 0
    9c10:	cafffff0 	bgt	9bd8 <__kernel_rem_pio2+0x6b8>
    9c14:	ed9f7b1d 	vldr	d7, [pc, #116]	; 9c90 <__kernel_rem_pio2+0x770>
    9c18:	ea000004 	b	9c30 <__kernel_rem_pio2+0x710>
    9c1c:	e28d3e23 	add	r3, sp, #560	; 0x230
    9c20:	e0833186 	add	r3, r3, r6, lsl #3
    9c24:	ed136b64 	vldr	d6, [r3, #-400]	; 0xfffffe70
    9c28:	ee377b06 	vadd.f64	d7, d7, d6
    9c2c:	e2466001 	sub	r6, r6, #1, 0
    9c30:	e3560001 	cmp	r6, #1, 0
    9c34:	cafffff8 	bgt	9c1c <__kernel_rem_pio2+0x6fc>
    9c38:	e3590000 	cmp	r9, #0, 0
    9c3c:	1a000005 	bne	9c58 <__kernel_rem_pio2+0x738>
    9c40:	e1cd2ad0 	ldrd	r2, [sp, #160]	; 0xa0
    9c44:	e1cb20f0 	strd	r2, [fp]
    9c48:	e1cd2ad8 	ldrd	r2, [sp, #168]	; 0xa8
    9c4c:	e1cb20f8 	strd	r2, [fp, #8]
    9c50:	ed8b7b04 	vstr	d7, [fp, #16]
    9c54:	eaffffaa 	b	9b04 <__kernel_rem_pio2+0x5e4>
    9c58:	ed9d6b28 	vldr	d6, [sp, #160]	; 0xa0
    9c5c:	eeb16b46 	vneg.f64	d6, d6
    9c60:	ed8b6b00 	vstr	d6, [fp]
    9c64:	ed9d6b2a 	vldr	d6, [sp, #168]	; 0xa8
    9c68:	eeb16b46 	vneg.f64	d6, d6
    9c6c:	ed8b6b02 	vstr	d6, [fp, #8]
    9c70:	eeb17b47 	vneg.f64	d7, d7
    9c74:	ed8b7b04 	vstr	d7, [fp, #16]
    9c78:	eaffffa1 	b	9b04 <__kernel_rem_pio2+0x5e4>
    9c7c:	e320f000 	nop	{0}
    9c80:	00000000 	.word	0x00000000
    9c84:	41700000 	.word	0x41700000
    9c88:	00000000 	.word	0x00000000
    9c8c:	3e700000 	.word	0x3e700000
	...
    9c98:	0000b2f8 	.word	0x0000b2f8
    9c9c:	00000000 	.word	0x00000000

00009ca0 <scalbn>:
    9ca0:	e92d4010 	push	{r4, lr}
    9ca4:	ed2d8b02 	vpush	{d8}
    9ca8:	e1a0c001 	mov	ip, r1
    9cac:	e1a03a41 	asr	r3, r1, #20
    9cb0:	e1a03a83 	lsl	r3, r3, #21
    9cb4:	e1a03aa3 	lsr	r3, r3, #21
    9cb8:	e3530000 	cmp	r3, #0, 0
    9cbc:	1a00000f 	bne	9d00 <scalbn+0x60>
    9cc0:	e1a0e000 	mov	lr, r0
    9cc4:	e3c1c102 	bic	ip, r1, #-2147483648	; 0x80000000
    9cc8:	e19c3000 	orrs	r3, ip, r0
    9ccc:	0a000037 	beq	9db0 <scalbn+0x110>
    9cd0:	ed9f7b4a 	vldr	d7, [pc, #296]	; 9e00 <scalbn+0x160>
    9cd4:	ec410b16 	vmov	d6, r0, r1
    9cd8:	ee267b07 	vmul.f64	d7, d6, d7
    9cdc:	ec510b17 	vmov	r0, r1, d7
    9ce0:	e1a0c001 	mov	ip, r1
    9ce4:	e1a03a41 	asr	r3, r1, #20
    9ce8:	e1a03a83 	lsl	r3, r3, #21
    9cec:	e1a03aa3 	lsr	r3, r3, #21
    9cf0:	e2433036 	sub	r3, r3, #54, 0	; 0x36
    9cf4:	e59fe124 	ldr	lr, [pc, #292]	; 9e20 <scalbn+0x180>
    9cf8:	e152000e 	cmp	r2, lr
    9cfc:	ba000016 	blt	9d5c <scalbn+0xbc>
    9d00:	e59fe11c 	ldr	lr, [pc, #284]	; 9e24 <scalbn+0x184>
    9d04:	e153000e 	cmp	r3, lr
    9d08:	0a000018 	beq	9d70 <scalbn+0xd0>
    9d0c:	e0833002 	add	r3, r3, r2
    9d10:	e59fe110 	ldr	lr, [pc, #272]	; 9e28 <scalbn+0x188>
    9d14:	e153000e 	cmp	r3, lr
    9d18:	ca000018 	bgt	9d80 <scalbn+0xe0>
    9d1c:	e3530000 	cmp	r3, #0, 0
    9d20:	ca00001f 	bgt	9da4 <scalbn+0x104>
    9d24:	e3730035 	cmn	r3, #53, 0	; 0x35
    9d28:	aa00002b 	bge	9ddc <scalbn+0x13c>
    9d2c:	e59f30f8 	ldr	r3, [pc, #248]	; 9e2c <scalbn+0x18c>
    9d30:	e1520003 	cmp	r2, r3
    9d34:	da00001f 	ble	9db8 <scalbn+0x118>
    9d38:	ed9f8b32 	vldr	d8, [pc, #200]	; 9e08 <scalbn+0x168>
    9d3c:	e1a02000 	mov	r2, r0
    9d40:	e1a03001 	mov	r3, r1
    9d44:	ec510b18 	vmov	r0, r1, d8
    9d48:	eb000098 	bl	9fb0 <copysign>
    9d4c:	ec410b17 	vmov	d7, r0, r1
    9d50:	ee277b08 	vmul.f64	d7, d7, d8
    9d54:	ec510b17 	vmov	r0, r1, d7
    9d58:	ea000014 	b	9db0 <scalbn+0x110>
    9d5c:	ed9f7b2b 	vldr	d7, [pc, #172]	; 9e10 <scalbn+0x170>
    9d60:	ec410b16 	vmov	d6, r0, r1
    9d64:	ee267b07 	vmul.f64	d7, d6, d7
    9d68:	ec510b17 	vmov	r0, r1, d7
    9d6c:	ea00000f 	b	9db0 <scalbn+0x110>
    9d70:	ec410b17 	vmov	d7, r0, r1
    9d74:	ee377b07 	vadd.f64	d7, d7, d7
    9d78:	ec510b17 	vmov	r0, r1, d7
    9d7c:	ea00000b 	b	9db0 <scalbn+0x110>
    9d80:	ed9f8b20 	vldr	d8, [pc, #128]	; 9e08 <scalbn+0x168>
    9d84:	e1a02000 	mov	r2, r0
    9d88:	e1a03001 	mov	r3, r1
    9d8c:	ec510b18 	vmov	r0, r1, d8
    9d90:	eb000086 	bl	9fb0 <copysign>
    9d94:	ec410b17 	vmov	d7, r0, r1
    9d98:	ee277b08 	vmul.f64	d7, d7, d8
    9d9c:	ec510b17 	vmov	r0, r1, d7
    9da0:	ea000002 	b	9db0 <scalbn+0x110>
    9da4:	e3ccc47f 	bic	ip, ip, #2130706432	; 0x7f000000
    9da8:	e3ccc60f 	bic	ip, ip, #15728640	; 0xf00000
    9dac:	e18c1a03 	orr	r1, ip, r3, lsl #20
    9db0:	ecbd8b02 	vpop	{d8}
    9db4:	e8bd8010 	pop	{r4, pc}
    9db8:	ed9f8b14 	vldr	d8, [pc, #80]	; 9e10 <scalbn+0x170>
    9dbc:	e1a02000 	mov	r2, r0
    9dc0:	e1a03001 	mov	r3, r1
    9dc4:	ec510b18 	vmov	r0, r1, d8
    9dc8:	eb000078 	bl	9fb0 <copysign>
    9dcc:	ec410b17 	vmov	d7, r0, r1
    9dd0:	ee277b08 	vmul.f64	d7, d7, d8
    9dd4:	ec510b17 	vmov	r0, r1, d7
    9dd8:	eafffff4 	b	9db0 <scalbn+0x110>
    9ddc:	e2833036 	add	r3, r3, #54, 0	; 0x36
    9de0:	e3ccc47f 	bic	ip, ip, #2130706432	; 0x7f000000
    9de4:	e3ccc60f 	bic	ip, ip, #15728640	; 0xf00000
    9de8:	e18c1a03 	orr	r1, ip, r3, lsl #20
    9dec:	ec410b17 	vmov	d7, r0, r1
    9df0:	ed9f6b08 	vldr	d6, [pc, #32]	; 9e18 <scalbn+0x178>
    9df4:	ee277b06 	vmul.f64	d7, d7, d6
    9df8:	ec510b17 	vmov	r0, r1, d7
    9dfc:	eaffffeb 	b	9db0 <scalbn+0x110>
    9e00:	00000000 	.word	0x00000000
    9e04:	43500000 	.word	0x43500000
    9e08:	8800759c 	.word	0x8800759c
    9e0c:	7e37e43c 	.word	0x7e37e43c
    9e10:	c2f8f359 	.word	0xc2f8f359
    9e14:	01a56e1f 	.word	0x01a56e1f
    9e18:	00000000 	.word	0x00000000
    9e1c:	3c900000 	.word	0x3c900000
    9e20:	ffff3cb0 	.word	0xffff3cb0
    9e24:	000007ff 	.word	0x000007ff
    9e28:	000007fe 	.word	0x000007fe
    9e2c:	0000c350 	.word	0x0000c350

00009e30 <floor>:
    9e30:	e92d4010 	push	{r4, lr}
    9e34:	e24dd008 	sub	sp, sp, #8, 0
    9e38:	e1cd00f0 	strd	r0, [sp]
    9e3c:	e59d1004 	ldr	r1, [sp, #4]
    9e40:	e1a0e001 	mov	lr, r1
    9e44:	e59d0000 	ldr	r0, [sp]
    9e48:	e1a0c000 	mov	ip, r0
    9e4c:	e1a03a41 	asr	r3, r1, #20
    9e50:	e1a03a83 	lsl	r3, r3, #21
    9e54:	e1a03aa3 	lsr	r3, r3, #21
    9e58:	e2432fff 	sub	r2, r3, #1020	; 0x3fc
    9e5c:	e2422003 	sub	r2, r2, #3, 0
    9e60:	e3520013 	cmp	r2, #19, 0
    9e64:	ca000026 	bgt	9f04 <floor+0xd4>
    9e68:	e3520000 	cmp	r2, #0, 0
    9e6c:	ba000012 	blt	9ebc <floor+0x8c>
    9e70:	e59f3130 	ldr	r3, [pc, #304]	; 9fa8 <floor+0x178>
    9e74:	e1a03253 	asr	r3, r3, r2
    9e78:	e0014003 	and	r4, r1, r3
    9e7c:	e1940000 	orrs	r0, r4, r0
    9e80:	0a000042 	beq	9f90 <floor+0x160>
    9e84:	ed9f7b45 	vldr	d7, [pc, #276]	; 9fa0 <floor+0x170>
    9e88:	ed9d6b00 	vldr	d6, [sp]
    9e8c:	ee367b07 	vadd.f64	d7, d6, d7
    9e90:	eeb57bc0 	vcmpe.f64	d7, #0.0
    9e94:	eef1fa10 	vmrs	APSR_nzcv, fpscr
    9e98:	da000003 	ble	9eac <floor+0x7c>
    9e9c:	e3510000 	cmp	r1, #0, 0
    9ea0:	ba000014 	blt	9ef8 <floor+0xc8>
    9ea4:	e1cee003 	bic	lr, lr, r3
    9ea8:	e3a0c000 	mov	ip, #0, 0
    9eac:	e1a0100e 	mov	r1, lr
    9eb0:	e1a0000c 	mov	r0, ip
    9eb4:	e28dd008 	add	sp, sp, #8, 0
    9eb8:	e8bd8010 	pop	{r4, pc}
    9ebc:	ed9f7b37 	vldr	d7, [pc, #220]	; 9fa0 <floor+0x170>
    9ec0:	ed9d6b00 	vldr	d6, [sp]
    9ec4:	ee367b07 	vadd.f64	d7, d6, d7
    9ec8:	eeb57bc0 	vcmpe.f64	d7, #0.0
    9ecc:	eef1fa10 	vmrs	APSR_nzcv, fpscr
    9ed0:	dafffff5 	ble	9eac <floor+0x7c>
    9ed4:	e3510000 	cmp	r1, #0, 0
    9ed8:	a3a0c000 	movge	ip, #0, 0
    9edc:	a1a0e00c 	movge	lr, ip
    9ee0:	aafffff1 	bge	9eac <floor+0x7c>
    9ee4:	e3c11102 	bic	r1, r1, #-2147483648	; 0x80000000
    9ee8:	e1913000 	orrs	r3, r1, r0
    9eec:	13a0c000 	movne	ip, #0, 0
    9ef0:	159fe0b4 	ldrne	lr, [pc, #180]	; 9fac <floor+0x17c>
    9ef4:	eaffffec 	b	9eac <floor+0x7c>
    9ef8:	e3a0e601 	mov	lr, #1048576	; 0x100000
    9efc:	e081e25e 	add	lr, r1, lr, asr r2
    9f00:	eaffffe7 	b	9ea4 <floor+0x74>
    9f04:	e3520033 	cmp	r2, #51, 0	; 0x33
    9f08:	da000006 	ble	9f28 <floor+0xf8>
    9f0c:	e3520b01 	cmp	r2, #1024	; 0x400
    9f10:	11cd00d0 	ldrdne	r0, [sp]
    9f14:	1affffe6 	bne	9eb4 <floor+0x84>
    9f18:	ed9d7b00 	vldr	d7, [sp]
    9f1c:	ee377b07 	vadd.f64	d7, d7, d7
    9f20:	ec510b17 	vmov	r0, r1, d7
    9f24:	eaffffe2 	b	9eb4 <floor+0x84>
    9f28:	e2433e41 	sub	r3, r3, #1040	; 0x410
    9f2c:	e2433003 	sub	r3, r3, #3, 0
    9f30:	e3e04000 	mvn	r4, #0, 0
    9f34:	e1a03334 	lsr	r3, r4, r3
    9f38:	e1130000 	tst	r3, r0
    9f3c:	0a000015 	beq	9f98 <floor+0x168>
    9f40:	ed9f7b16 	vldr	d7, [pc, #88]	; 9fa0 <floor+0x170>
    9f44:	ed9d6b00 	vldr	d6, [sp]
    9f48:	ee367b07 	vadd.f64	d7, d6, d7
    9f4c:	eeb57bc0 	vcmpe.f64	d7, #0.0
    9f50:	eef1fa10 	vmrs	APSR_nzcv, fpscr
    9f54:	daffffd4 	ble	9eac <floor+0x7c>
    9f58:	e3510000 	cmp	r1, #0, 0
    9f5c:	ba000001 	blt	9f68 <floor+0x138>
    9f60:	e1ccc003 	bic	ip, ip, r3
    9f64:	eaffffd0 	b	9eac <floor+0x7c>
    9f68:	e3520014 	cmp	r2, #20, 0
    9f6c:	0a000005 	beq	9f88 <floor+0x158>
    9f70:	e2622034 	rsb	r2, r2, #52, 0	; 0x34
    9f74:	e3a0c001 	mov	ip, #1, 0
    9f78:	e080c21c 	add	ip, r0, ip, lsl r2
    9f7c:	e15c0000 	cmp	ip, r0
    9f80:	3281e001 	addcc	lr, r1, #1, 0
    9f84:	eafffff5 	b	9f60 <floor+0x130>
    9f88:	e281e001 	add	lr, r1, #1, 0
    9f8c:	eafffff3 	b	9f60 <floor+0x130>
    9f90:	e1cd00d0 	ldrd	r0, [sp]
    9f94:	eaffffc6 	b	9eb4 <floor+0x84>
    9f98:	e1cd00d0 	ldrd	r0, [sp]
    9f9c:	eaffffc4 	b	9eb4 <floor+0x84>
    9fa0:	8800759c 	.word	0x8800759c
    9fa4:	7e37e43c 	.word	0x7e37e43c
    9fa8:	000fffff 	.word	0x000fffff
    9fac:	bff00000 	.word	0xbff00000

00009fb0 <copysign>:
    9fb0:	e92d0030 	push	{r4, r5}
    9fb4:	e3c1c102 	bic	ip, r1, #-2147483648	; 0x80000000
    9fb8:	e2033102 	and	r3, r3, #-2147483648	; 0x80000000
    9fbc:	e18c1003 	orr	r1, ip, r3
    9fc0:	e8bd0030 	pop	{r4, r5}
    9fc4:	e12fff1e 	bx	lr

00009fc8 <sqrt>:
    9fc8:	e92d40f0 	push	{r4, r5, r6, r7, lr}
    9fcc:	e24dd00c 	sub	sp, sp, #12, 0
    9fd0:	e1cd00f0 	strd	r0, [sp]
    9fd4:	e59d3004 	ldr	r3, [sp, #4]
    9fd8:	e59d2000 	ldr	r2, [sp]
    9fdc:	e59f11d4 	ldr	r1, [pc, #468]	; a1b8 <sqrt+0x1f0>
    9fe0:	e1d11003 	bics	r1, r1, r3
    9fe4:	0a000014 	beq	a03c <sqrt+0x74>
    9fe8:	e3530000 	cmp	r3, #0, 0
    9fec:	da000016 	ble	a04c <sqrt+0x84>
    9ff0:	e1b01a43 	asrs	r1, r3, #20
    9ff4:	0a00001e 	beq	a074 <sqrt+0xac>
    9ff8:	e2415fff 	sub	r5, r1, #1020	; 0x3fc
    9ffc:	e2455003 	sub	r5, r5, #3, 0
    a000:	e3c334ff 	bic	r3, r3, #-16777216	; 0xff000000
    a004:	e3c3360f 	bic	r3, r3, #15728640	; 0xf00000
    a008:	e3833601 	orr	r3, r3, #1048576	; 0x100000
    a00c:	e3110001 	tst	r1, #1, 0
    a010:	00831fa2 	addeq	r1, r3, r2, lsr #31
    a014:	00833001 	addeq	r3, r3, r1
    a018:	01a02082 	lsleq	r2, r2, #1
    a01c:	e1a050c5 	asr	r5, r5, #1
    a020:	e0831fa2 	add	r1, r3, r2, lsr #31
    a024:	e0833001 	add	r3, r3, r1
    a028:	e1a02082 	lsl	r2, r2, #1
    a02c:	e3a01602 	mov	r1, #2097152	; 0x200000
    a030:	e3a07000 	mov	r7, #0, 0
    a034:	e1a0c007 	mov	ip, r7
    a038:	ea000022 	b	a0c8 <sqrt+0x100>
    a03c:	ed9d7b00 	vldr	d7, [sp]
    a040:	ee077b07 	vmla.f64	d7, d7, d7
    a044:	ec510b17 	vmov	r0, r1, d7
    a048:	ea000053 	b	a19c <sqrt+0x1d4>
    a04c:	e3c31102 	bic	r1, r3, #-2147483648	; 0x80000000
    a050:	e1911002 	orrs	r1, r1, r2
    a054:	0a000055 	beq	a1b0 <sqrt+0x1e8>
    a058:	e3530000 	cmp	r3, #0, 0
    a05c:	aaffffe3 	bge	9ff0 <sqrt+0x28>
    a060:	ed9d7b00 	vldr	d7, [sp]
    a064:	ee377b47 	vsub.f64	d7, d7, d7
    a068:	ee877b07 	vdiv.f64	d7, d7, d7
    a06c:	ec510b17 	vmov	r0, r1, d7
    a070:	ea000049 	b	a19c <sqrt+0x1d4>
    a074:	e1a00001 	mov	r0, r1
    a078:	e3530000 	cmp	r3, #0, 0
    a07c:	1a000005 	bne	a098 <sqrt+0xd0>
    a080:	e2400015 	sub	r0, r0, #21, 0
    a084:	e18335a2 	orr	r3, r3, r2, lsr #11
    a088:	e1a02a82 	lsl	r2, r2, #21
    a08c:	eafffff9 	b	a078 <sqrt+0xb0>
    a090:	e1a03083 	lsl	r3, r3, #1
    a094:	e2811001 	add	r1, r1, #1, 0
    a098:	e3130601 	tst	r3, #1048576	; 0x100000
    a09c:	0afffffb 	beq	a090 <sqrt+0xc8>
    a0a0:	e241c001 	sub	ip, r1, #1, 0
    a0a4:	e261e020 	rsb	lr, r1, #32, 0
    a0a8:	e1833e32 	orr	r3, r3, r2, lsr lr
    a0ac:	e1a02112 	lsl	r2, r2, r1
    a0b0:	e040100c 	sub	r1, r0, ip
    a0b4:	eaffffcf 	b	9ff8 <sqrt+0x30>
    a0b8:	e0830fa2 	add	r0, r3, r2, lsr #31
    a0bc:	e0833000 	add	r3, r3, r0
    a0c0:	e1a02082 	lsl	r2, r2, #1
    a0c4:	e1a010a1 	lsr	r1, r1, #1
    a0c8:	e3510000 	cmp	r1, #0, 0
    a0cc:	0a000005 	beq	a0e8 <sqrt+0x120>
    a0d0:	e08c0001 	add	r0, ip, r1
    a0d4:	e1530000 	cmp	r3, r0
    a0d8:	a080c001 	addge	ip, r0, r1
    a0dc:	a0433000 	subge	r3, r3, r0
    a0e0:	a0877001 	addge	r7, r7, r1
    a0e4:	eafffff3 	b	a0b8 <sqrt+0xf0>
    a0e8:	e1a04001 	mov	r4, r1
    a0ec:	e3a00102 	mov	r0, #-2147483648	; 0x80000000
    a0f0:	ea00000d 	b	a12c <sqrt+0x164>
    a0f4:	e080100e 	add	r1, r0, lr
    a0f8:	e35e0000 	cmp	lr, #0, 0
    a0fc:	ba000013 	blt	a150 <sqrt+0x188>
    a100:	e1a0600c 	mov	r6, ip
    a104:	e043300c 	sub	r3, r3, ip
    a108:	e152000e 	cmp	r2, lr
    a10c:	32433001 	subcc	r3, r3, #1, 0
    a110:	e042200e 	sub	r2, r2, lr
    a114:	e0844000 	add	r4, r4, r0
    a118:	e1a0c006 	mov	ip, r6
    a11c:	e083efa2 	add	lr, r3, r2, lsr #31
    a120:	e083300e 	add	r3, r3, lr
    a124:	e1a02082 	lsl	r2, r2, #1
    a128:	e1a000a0 	lsr	r0, r0, #1
    a12c:	e3500000 	cmp	r0, #0, 0
    a130:	0a00000b 	beq	a164 <sqrt+0x19c>
    a134:	e080e001 	add	lr, r0, r1
    a138:	e153000c 	cmp	r3, ip
    a13c:	caffffec 	bgt	a0f4 <sqrt+0x12c>
    a140:	e152000e 	cmp	r2, lr
    a144:	2153000c 	cmpcs	r3, ip
    a148:	1afffff3 	bne	a11c <sqrt+0x154>
    a14c:	eaffffe8 	b	a0f4 <sqrt+0x12c>
    a150:	e3510000 	cmp	r1, #0, 0
    a154:	a28c6001 	addge	r6, ip, #1, 0
    a158:	aaffffe9 	bge	a104 <sqrt+0x13c>
    a15c:	e1a0600c 	mov	r6, ip
    a160:	eaffffe7 	b	a104 <sqrt+0x13c>
    a164:	e1933002 	orrs	r3, r3, r2
    a168:	0a000003 	beq	a17c <sqrt+0x1b4>
    a16c:	e3740001 	cmn	r4, #1, 0
    a170:	0a00000b 	beq	a1a4 <sqrt+0x1dc>
    a174:	e2844001 	add	r4, r4, #1, 0
    a178:	e3c44001 	bic	r4, r4, #1, 0
    a17c:	e1a030c7 	asr	r3, r7, #1
    a180:	e28335ff 	add	r3, r3, #1069547520	; 0x3fc00000
    a184:	e2833602 	add	r3, r3, #2097152	; 0x200000
    a188:	e1a040a4 	lsr	r4, r4, #1
    a18c:	e3170001 	tst	r7, #1, 0
    a190:	13844102 	orrne	r4, r4, #-2147483648	; 0x80000000
    a194:	e0831a05 	add	r1, r3, r5, lsl #20
    a198:	e1a00004 	mov	r0, r4
    a19c:	e28dd00c 	add	sp, sp, #12, 0
    a1a0:	e8bd80f0 	pop	{r4, r5, r6, r7, pc}
    a1a4:	e2877001 	add	r7, r7, #1, 0
    a1a8:	e1a04000 	mov	r4, r0
    a1ac:	eafffff2 	b	a17c <sqrt+0x1b4>
    a1b0:	e1cd00d0 	ldrd	r0, [sp]
    a1b4:	eafffff8 	b	a19c <sqrt+0x1d4>
    a1b8:	7ff00000 	.word	0x7ff00000
    a1bc:	00000000 	.word	0x00000000

0000a1c0 <trunc>:
    a1c0:	eefd7bc0 	vcvt.s32.f64	s15, d0
    a1c4:	ee170a90 	vmov	r0, s15
    a1c8:	e12fff1e 	bx	lr

0000a1cc <fp_get_frac>:
    a1cc:	e92d4010 	push	{r4, lr}
    a1d0:	eeb50bc0 	vcmpe.f64	d0, #0.0
    a1d4:	eef1fa10 	vmrs	APSR_nzcv, fpscr
    a1d8:	4a00000b 	bmi	a20c <fp_get_frac+0x40>
    a1dc:	ed9f7b0d 	vldr	d7, [pc, #52]	; a218 <fp_get_frac+0x4c>
    a1e0:	ee200b07 	vmul.f64	d0, d0, d7
    a1e4:	ebfffff5 	bl	a1c0 <trunc>
    a1e8:	e59f3030 	ldr	r3, [pc, #48]	; a220 <fp_get_frac+0x54>
    a1ec:	e0c23093 	smull	r3, r2, r3, r0
    a1f0:	e1a03fc0 	asr	r3, r0, #31
    a1f4:	e0633942 	rsb	r3, r3, r2, asr #18
    a1f8:	e0632283 	rsb	r2, r3, r3, lsl #5
    a1fc:	e0622302 	rsb	r2, r2, r2, lsl #6
    a200:	e0833182 	add	r3, r3, r2, lsl #3
    a204:	e0400303 	sub	r0, r0, r3, lsl #6
    a208:	e8bd8010 	pop	{r4, pc}
    a20c:	eeb10b40 	vneg.f64	d0, d0
    a210:	eafffff1 	b	a1dc <fp_get_frac+0x10>
    a214:	e320f000 	nop	{0}
    a218:	00000000 	.word	0x00000000
    a21c:	412e8480 	.word	0x412e8480
    a220:	431bde83 	.word	0x431bde83

0000a224 <fp_get_integral>:
    a224:	e92d4010 	push	{r4, lr}
    a228:	ebffffe4 	bl	a1c0 <trunc>
    a22c:	e8bd8010 	pop	{r4, pc}

0000a230 <printk>:
    a230:	e92d000f 	push	{r0, r1, r2, r3}
    a234:	e52de004 	push	{lr}		; (str lr, [sp, #-4]!)
    a238:	e24dd00c 	sub	sp, sp, #12, 0
    a23c:	e28d1014 	add	r1, sp, #20, 0
    a240:	e58d1004 	str	r1, [sp, #4]
    a244:	e59d0010 	ldr	r0, [sp, #16]
    a248:	eb000084 	bl	a460 <vprintk>
    a24c:	e28dd00c 	add	sp, sp, #12, 0
    a250:	e49de004 	pop	{lr}		; (ldr lr, [sp], #4)
    a254:	e28dd010 	add	sp, sp, #16, 0
    a258:	e12fff1e 	bx	lr

0000a25c <emit_val>:
    a25c:	e92d4030 	push	{r4, r5, lr}
    a260:	e24dd034 	sub	sp, sp, #52, 0	; 0x34
    a264:	e1a05002 	mov	r5, r2
    a268:	e350000a 	cmp	r0, #10, 0
    a26c:	0a000014 	beq	a2c4 <emit_val+0x68>
    a270:	e3500010 	cmp	r0, #16, 0
    a274:	0a000022 	beq	a304 <emit_val+0xa8>
    a278:	e3500002 	cmp	r0, #2, 0
    a27c:	0a000006 	beq	a29c <emit_val+0x40>
    a280:	e58d0000 	str	r0, [sp]
    a284:	e3a0301c 	mov	r3, #28, 0
    a288:	e59f20e8 	ldr	r2, [pc, #232]	; a378 <emit_val+0x11c>
    a28c:	e59f10e8 	ldr	r1, [pc, #232]	; a37c <emit_val+0x120>
    a290:	e59f00e8 	ldr	r0, [pc, #232]	; a380 <emit_val+0x124>
    a294:	ebffffe5 	bl	a230 <printk>
    a298:	eb0001a2 	bl	a928 <clean_reboot>
    a29c:	e28d400c 	add	r4, sp, #12, 0
    a2a0:	e2012001 	and	r2, r1, #1, 0
    a2a4:	e59f00d8 	ldr	r0, [pc, #216]	; a384 <emit_val+0x128>
    a2a8:	e7d02002 	ldrb	r2, [r0, r2]
    a2ac:	e5c42000 	strb	r2, [r4]
    a2b0:	e2844001 	add	r4, r4, #1, 0
    a2b4:	e3510001 	cmp	r1, #1, 0
    a2b8:	e1a010a1 	lsr	r1, r1, #1
    a2bc:	8afffff7 	bhi	a2a0 <emit_val+0x44>
    a2c0:	ea00001e 	b	a340 <emit_val+0xe4>
    a2c4:	e28d400c 	add	r4, sp, #12, 0
    a2c8:	e59f30b8 	ldr	r3, [pc, #184]	; a388 <emit_val+0x12c>
    a2cc:	e0832193 	umull	r2, r3, r3, r1
    a2d0:	e1a031a3 	lsr	r3, r3, #3
    a2d4:	e1a00003 	mov	r0, r3
    a2d8:	e0833103 	add	r3, r3, r3, lsl #2
    a2dc:	e0413083 	sub	r3, r1, r3, lsl #1
    a2e0:	e59fc0a4 	ldr	ip, [pc, #164]	; a38c <emit_val+0x130>
    a2e4:	e7dcc003 	ldrb	ip, [ip, r3]
    a2e8:	e5c4c000 	strb	ip, [r4]
    a2ec:	e2844001 	add	r4, r4, #1, 0
    a2f0:	e1a03001 	mov	r3, r1
    a2f4:	e1a01000 	mov	r1, r0
    a2f8:	e3530009 	cmp	r3, #9, 0
    a2fc:	8afffff1 	bhi	a2c8 <emit_val+0x6c>
    a300:	ea00000e 	b	a340 <emit_val+0xe4>
    a304:	e28d400c 	add	r4, sp, #12, 0
    a308:	e201200f 	and	r2, r1, #15, 0
    a30c:	e59f007c 	ldr	r0, [pc, #124]	; a390 <emit_val+0x134>
    a310:	e7d02002 	ldrb	r2, [r0, r2]
    a314:	e5c42000 	strb	r2, [r4]
    a318:	e2844001 	add	r4, r4, #1, 0
    a31c:	e351000f 	cmp	r1, #15, 0
    a320:	e1a01221 	lsr	r1, r1, #4
    a324:	8afffff7 	bhi	a308 <emit_val+0xac>
    a328:	ea000004 	b	a340 <emit_val+0xe4>
    a32c:	e59f3060 	ldr	r3, [pc, #96]	; a394 <emit_val+0x138>
    a330:	e5933000 	ldr	r3, [r3]
    a334:	e3a00030 	mov	r0, #48, 0	; 0x30
    a338:	e12fff33 	blx	r3
    a33c:	e2455001 	sub	r5, r5, #1, 0
    a340:	e28d300c 	add	r3, sp, #12, 0
    a344:	e0443003 	sub	r3, r4, r3
    a348:	e1530005 	cmp	r3, r5
    a34c:	3afffff6 	bcc	a32c <emit_val+0xd0>
    a350:	ea000003 	b	a364 <emit_val+0x108>
    a354:	e59f3038 	ldr	r3, [pc, #56]	; a394 <emit_val+0x138>
    a358:	e5933000 	ldr	r3, [r3]
    a35c:	e5740001 	ldrb	r0, [r4, #-1]!
    a360:	e12fff33 	blx	r3
    a364:	e28d300c 	add	r3, sp, #12, 0
    a368:	e1540003 	cmp	r4, r3
    a36c:	8afffff8 	bhi	a354 <emit_val+0xf8>
    a370:	e28dd034 	add	sp, sp, #52, 0	; 0x34
    a374:	e8bd8030 	pop	{r4, r5, pc}
    a378:	0000b540 	.word	0x0000b540
    a37c:	0000b450 	.word	0x0000b450
    a380:	0000b460 	.word	0x0000b460
    a384:	0000b484 	.word	0x0000b484
    a388:	cccccccd 	.word	0xcccccccd
    a38c:	0000b488 	.word	0x0000b488
    a390:	0000b494 	.word	0x0000b494
    a394:	0000b5c8 	.word	0x0000b5c8

0000a398 <__emit_float>:
    a398:	e92d4070 	push	{r4, r5, r6, lr}
    a39c:	ed2d8b02 	vpush	{d8}
    a3a0:	eeb08b40 	vmov.f64	d8, d0
    a3a4:	eeb50bc0 	vcmpe.f64	d0, #0.0
    a3a8:	eef1fa10 	vmrs	APSR_nzcv, fpscr
    a3ac:	4a00001c 	bmi	a424 <__emit_float+0x8c>
    a3b0:	eeb00b48 	vmov.f64	d0, d8
    a3b4:	ebffff9a 	bl	a224 <fp_get_integral>
    a3b8:	e1a01000 	mov	r1, r0
    a3bc:	e3a02000 	mov	r2, #0, 0
    a3c0:	e3a0000a 	mov	r0, #10, 0
    a3c4:	ebffffa4 	bl	a25c <emit_val>
    a3c8:	e59f3084 	ldr	r3, [pc, #132]	; a454 <__emit_float+0xbc>
    a3cc:	e5933000 	ldr	r3, [r3]
    a3d0:	e3a0002e 	mov	r0, #46, 0	; 0x2e
    a3d4:	e12fff33 	blx	r3
    a3d8:	eeb00b48 	vmov.f64	d0, d8
    a3dc:	ebffff7a 	bl	a1cc <fp_get_frac>
    a3e0:	e1a05000 	mov	r5, r0
    a3e4:	e59f406c 	ldr	r4, [pc, #108]	; a458 <__emit_float+0xc0>
    a3e8:	e1540005 	cmp	r4, r5
    a3ec:	93a03000 	movls	r3, #0, 0
    a3f0:	83a03001 	movhi	r3, #1, 0
    a3f4:	e3550000 	cmp	r5, #0, 0
    a3f8:	03a03000 	moveq	r3, #0, 0
    a3fc:	e3530000 	cmp	r3, #0, 0
    a400:	0a00000d 	beq	a43c <__emit_float+0xa4>
    a404:	e59f3048 	ldr	r3, [pc, #72]	; a454 <__emit_float+0xbc>
    a408:	e5933000 	ldr	r3, [r3]
    a40c:	e3a00030 	mov	r0, #48, 0	; 0x30
    a410:	e12fff33 	blx	r3
    a414:	e59f3040 	ldr	r3, [pc, #64]	; a45c <__emit_float+0xc4>
    a418:	e0843493 	umull	r3, r4, r3, r4
    a41c:	e1a041a4 	lsr	r4, r4, #3
    a420:	eafffff0 	b	a3e8 <__emit_float+0x50>
    a424:	e59f3028 	ldr	r3, [pc, #40]	; a454 <__emit_float+0xbc>
    a428:	e5933000 	ldr	r3, [r3]
    a42c:	e3a0002d 	mov	r0, #45, 0	; 0x2d
    a430:	e12fff33 	blx	r3
    a434:	eeb18b48 	vneg.f64	d8, d8
    a438:	eaffffdc 	b	a3b0 <__emit_float+0x18>
    a43c:	e3a02000 	mov	r2, #0, 0
    a440:	e1a01005 	mov	r1, r5
    a444:	e3a0000a 	mov	r0, #10, 0
    a448:	ebffff83 	bl	a25c <emit_val>
    a44c:	ecbd8b02 	vpop	{d8}
    a450:	e8bd8070 	pop	{r4, r5, r6, pc}
    a454:	0000b5c8 	.word	0x0000b5c8
    a458:	000186a0 	.word	0x000186a0
    a45c:	cccccccd 	.word	0xcccccccd

0000a460 <vprintk>:
    a460:	e92d4030 	push	{r4, r5, lr}
    a464:	e24dd014 	sub	sp, sp, #20, 0
    a468:	e1a04000 	mov	r4, r0
    a46c:	e58d100c 	str	r1, [sp, #12]
    a470:	ea000003 	b	a484 <vprintk+0x24>
    a474:	e59f33fc 	ldr	r3, [pc, #1020]	; a878 <vprintk+0x418>
    a478:	e5933000 	ldr	r3, [r3]
    a47c:	e12fff33 	blx	r3
    a480:	e2844001 	add	r4, r4, #1, 0
    a484:	e5d40000 	ldrb	r0, [r4]
    a488:	e3500000 	cmp	r0, #0, 0
    a48c:	0a0000f7 	beq	a870 <vprintk+0x410>
    a490:	e3500025 	cmp	r0, #37, 0	; 0x25
    a494:	1afffff6 	bne	a474 <vprintk+0x14>
    a498:	e2845001 	add	r5, r4, #1, 0
    a49c:	e5d42001 	ldrb	r2, [r4, #1]
    a4a0:	e2423030 	sub	r3, r2, #48, 0	; 0x30
    a4a4:	e3530048 	cmp	r3, #72, 0	; 0x48
    a4a8:	979ff103 	ldrls	pc, [pc, r3, lsl #2]
    a4ac:	ea0000e8 	b	a854 <vprintk+0x3f4>
    a4b0:	0000a700 	.word	0x0000a700
    a4b4:	0000a854 	.word	0x0000a854
    a4b8:	0000a854 	.word	0x0000a854
    a4bc:	0000a854 	.word	0x0000a854
    a4c0:	0000a854 	.word	0x0000a854
    a4c4:	0000a854 	.word	0x0000a854
    a4c8:	0000a854 	.word	0x0000a854
    a4cc:	0000a854 	.word	0x0000a854
    a4d0:	0000a854 	.word	0x0000a854
    a4d4:	0000a854 	.word	0x0000a854
    a4d8:	0000a854 	.word	0x0000a854
    a4dc:	0000a854 	.word	0x0000a854
    a4e0:	0000a854 	.word	0x0000a854
    a4e4:	0000a854 	.word	0x0000a854
    a4e8:	0000a854 	.word	0x0000a854
    a4ec:	0000a854 	.word	0x0000a854
    a4f0:	0000a854 	.word	0x0000a854
    a4f4:	0000a854 	.word	0x0000a854
    a4f8:	0000a854 	.word	0x0000a854
    a4fc:	0000a854 	.word	0x0000a854
    a500:	0000a854 	.word	0x0000a854
    a504:	0000a854 	.word	0x0000a854
    a508:	0000a854 	.word	0x0000a854
    a50c:	0000a854 	.word	0x0000a854
    a510:	0000a854 	.word	0x0000a854
    a514:	0000a854 	.word	0x0000a854
    a518:	0000a854 	.word	0x0000a854
    a51c:	0000a854 	.word	0x0000a854
    a520:	0000a854 	.word	0x0000a854
    a524:	0000a854 	.word	0x0000a854
    a528:	0000a854 	.word	0x0000a854
    a52c:	0000a854 	.word	0x0000a854
    a530:	0000a854 	.word	0x0000a854
    a534:	0000a854 	.word	0x0000a854
    a538:	0000a854 	.word	0x0000a854
    a53c:	0000a854 	.word	0x0000a854
    a540:	0000a854 	.word	0x0000a854
    a544:	0000a854 	.word	0x0000a854
    a548:	0000a854 	.word	0x0000a854
    a54c:	0000a854 	.word	0x0000a854
    a550:	0000a854 	.word	0x0000a854
    a554:	0000a854 	.word	0x0000a854
    a558:	0000a854 	.word	0x0000a854
    a55c:	0000a854 	.word	0x0000a854
    a560:	0000a854 	.word	0x0000a854
    a564:	0000a854 	.word	0x0000a854
    a568:	0000a854 	.word	0x0000a854
    a56c:	0000a854 	.word	0x0000a854
    a570:	0000a854 	.word	0x0000a854
    a574:	0000a854 	.word	0x0000a854
    a578:	0000a5d4 	.word	0x0000a5d4
    a57c:	0000a61c 	.word	0x0000a61c
    a580:	0000a7b0 	.word	0x0000a7b0
    a584:	0000a854 	.word	0x0000a854
    a588:	0000a830 	.word	0x0000a830
    a58c:	0000a854 	.word	0x0000a854
    a590:	0000a854 	.word	0x0000a854
    a594:	0000a854 	.word	0x0000a854
    a598:	0000a854 	.word	0x0000a854
    a59c:	0000a854 	.word	0x0000a854
    a5a0:	0000a640 	.word	0x0000a640
    a5a4:	0000a854 	.word	0x0000a854
    a5a8:	0000a854 	.word	0x0000a854
    a5ac:	0000a854 	.word	0x0000a854
    a5b0:	0000a770 	.word	0x0000a770
    a5b4:	0000a854 	.word	0x0000a854
    a5b8:	0000a854 	.word	0x0000a854
    a5bc:	0000a7f8 	.word	0x0000a7f8
    a5c0:	0000a854 	.word	0x0000a854
    a5c4:	0000a5f8 	.word	0x0000a5f8
    a5c8:	0000a854 	.word	0x0000a854
    a5cc:	0000a854 	.word	0x0000a854
    a5d0:	0000a770 	.word	0x0000a770
    a5d4:	e59d300c 	ldr	r3, [sp, #12]
    a5d8:	e2832004 	add	r2, r3, #4, 0
    a5dc:	e58d200c 	str	r2, [sp, #12]
    a5e0:	e3a02000 	mov	r2, #0, 0
    a5e4:	e5931000 	ldr	r1, [r3]
    a5e8:	e3a00002 	mov	r0, #2, 0
    a5ec:	ebffff1a 	bl	a25c <emit_val>
    a5f0:	e1a04005 	mov	r4, r5
    a5f4:	eaffffa1 	b	a480 <vprintk+0x20>
    a5f8:	e59d300c 	ldr	r3, [sp, #12]
    a5fc:	e2832004 	add	r2, r3, #4, 0
    a600:	e58d200c 	str	r2, [sp, #12]
    a604:	e3a02000 	mov	r2, #0, 0
    a608:	e5931000 	ldr	r1, [r3]
    a60c:	e3a0000a 	mov	r0, #10, 0
    a610:	ebffff11 	bl	a25c <emit_val>
    a614:	e1a04005 	mov	r4, r5
    a618:	eaffff98 	b	a480 <vprintk+0x20>
    a61c:	e59f3254 	ldr	r3, [pc, #596]	; a878 <vprintk+0x418>
    a620:	e5932000 	ldr	r2, [r3]
    a624:	e59d300c 	ldr	r3, [sp, #12]
    a628:	e2831004 	add	r1, r3, #4, 0
    a62c:	e58d100c 	str	r1, [sp, #12]
    a630:	e5930000 	ldr	r0, [r3]
    a634:	e12fff32 	blx	r2
    a638:	e1a04005 	mov	r4, r5
    a63c:	eaffff8f 	b	a480 <vprintk+0x20>
    a640:	e2842002 	add	r2, r4, #2, 0
    a644:	e5d43002 	ldrb	r3, [r4, #2]
    a648:	e353006c 	cmp	r3, #108, 0	; 0x6c
    a64c:	1a000019 	bne	a6b8 <vprintk+0x258>
    a650:	e2845003 	add	r5, r4, #3, 0
    a654:	e5d43003 	ldrb	r3, [r4, #3]
    a658:	e3530078 	cmp	r3, #120, 0	; 0x78
    a65c:	1a00001c 	bne	a6d4 <vprintk+0x274>
    a660:	e59f4210 	ldr	r4, [pc, #528]	; a878 <vprintk+0x418>
    a664:	e5943000 	ldr	r3, [r4]
    a668:	e3a00030 	mov	r0, #48, 0	; 0x30
    a66c:	e12fff33 	blx	r3
    a670:	e5943000 	ldr	r3, [r4]
    a674:	e3a00078 	mov	r0, #120, 0	; 0x78
    a678:	e12fff33 	blx	r3
    a67c:	e59d300c 	ldr	r3, [sp, #12]
    a680:	e2833007 	add	r3, r3, #7, 0
    a684:	e3c33007 	bic	r3, r3, #7, 0
    a688:	e2832008 	add	r2, r3, #8, 0
    a68c:	e58d200c 	str	r2, [sp, #12]
    a690:	e5934000 	ldr	r4, [r3]
    a694:	e5931004 	ldr	r1, [r3, #4]
    a698:	e3510000 	cmp	r1, #0, 0
    a69c:	1a000013 	bne	a6f0 <vprintk+0x290>
    a6a0:	e3a02000 	mov	r2, #0, 0
    a6a4:	e1a01004 	mov	r1, r4
    a6a8:	e3a00010 	mov	r0, #16, 0
    a6ac:	ebfffeea 	bl	a25c <emit_val>
    a6b0:	e1a04005 	mov	r4, r5
    a6b4:	eaffff71 	b	a480 <vprintk+0x20>
    a6b8:	e58d2000 	str	r2, [sp]
    a6bc:	e3a03067 	mov	r3, #103, 0	; 0x67
    a6c0:	e59f21b4 	ldr	r2, [pc, #436]	; a87c <vprintk+0x41c>
    a6c4:	e59f11b4 	ldr	r1, [pc, #436]	; a880 <vprintk+0x420>
    a6c8:	e59f01b4 	ldr	r0, [pc, #436]	; a884 <vprintk+0x424>
    a6cc:	ebfffed7 	bl	a230 <printk>
    a6d0:	eb000094 	bl	a928 <clean_reboot>
    a6d4:	e58d5000 	str	r5, [sp]
    a6d8:	e3a0306a 	mov	r3, #106, 0	; 0x6a
    a6dc:	e59f2198 	ldr	r2, [pc, #408]	; a87c <vprintk+0x41c>
    a6e0:	e59f1198 	ldr	r1, [pc, #408]	; a880 <vprintk+0x420>
    a6e4:	e59f0198 	ldr	r0, [pc, #408]	; a884 <vprintk+0x424>
    a6e8:	ebfffed0 	bl	a230 <printk>
    a6ec:	eb00008d 	bl	a928 <clean_reboot>
    a6f0:	e3a02000 	mov	r2, #0, 0
    a6f4:	e3a00010 	mov	r0, #16, 0
    a6f8:	ebfffed7 	bl	a25c <emit_val>
    a6fc:	eaffffe7 	b	a6a0 <vprintk+0x240>
    a700:	e2844002 	add	r4, r4, #2, 0
    a704:	e3a02000 	mov	r2, #0, 0
    a708:	ea000003 	b	a71c <vprintk+0x2bc>
    a70c:	e0822102 	add	r2, r2, r2, lsl #2
    a710:	e2433030 	sub	r3, r3, #48, 0	; 0x30
    a714:	e0832082 	add	r2, r3, r2, lsl #1
    a718:	e2844001 	add	r4, r4, #1, 0
    a71c:	e5d43000 	ldrb	r3, [r4]
    a720:	e2431030 	sub	r1, r3, #48, 0	; 0x30
    a724:	e6ef1071 	uxtb	r1, r1
    a728:	e3510009 	cmp	r1, #9, 0
    a72c:	9afffff6 	bls	a70c <vprintk+0x2ac>
    a730:	e3530078 	cmp	r3, #120, 0	; 0x78
    a734:	1a000006 	bne	a754 <vprintk+0x2f4>
    a738:	e59d300c 	ldr	r3, [sp, #12]
    a73c:	e2831004 	add	r1, r3, #4, 0
    a740:	e58d100c 	str	r1, [sp, #12]
    a744:	e5931000 	ldr	r1, [r3]
    a748:	e3a00010 	mov	r0, #16, 0
    a74c:	ebfffec2 	bl	a25c <emit_val>
    a750:	eaffff4a 	b	a480 <vprintk+0x20>
    a754:	e58d4000 	str	r4, [sp]
    a758:	e3a03083 	mov	r3, #131, 0	; 0x83
    a75c:	e59f2118 	ldr	r2, [pc, #280]	; a87c <vprintk+0x41c>
    a760:	e59f1118 	ldr	r1, [pc, #280]	; a880 <vprintk+0x420>
    a764:	e59f011c 	ldr	r0, [pc, #284]	; a888 <vprintk+0x428>
    a768:	ebfffeb0 	bl	a230 <printk>
    a76c:	eb00006d 	bl	a928 <clean_reboot>
    a770:	e59f4100 	ldr	r4, [pc, #256]	; a878 <vprintk+0x418>
    a774:	e5943000 	ldr	r3, [r4]
    a778:	e3a00030 	mov	r0, #48, 0	; 0x30
    a77c:	e12fff33 	blx	r3
    a780:	e5943000 	ldr	r3, [r4]
    a784:	e3a00078 	mov	r0, #120, 0	; 0x78
    a788:	e12fff33 	blx	r3
    a78c:	e59d300c 	ldr	r3, [sp, #12]
    a790:	e2832004 	add	r2, r3, #4, 0
    a794:	e58d200c 	str	r2, [sp, #12]
    a798:	e3a02000 	mov	r2, #0, 0
    a79c:	e5931000 	ldr	r1, [r3]
    a7a0:	e3a00010 	mov	r0, #16, 0
    a7a4:	ebfffeac 	bl	a25c <emit_val>
    a7a8:	e1a04005 	mov	r4, r5
    a7ac:	eaffff33 	b	a480 <vprintk+0x20>
    a7b0:	e59d300c 	ldr	r3, [sp, #12]
    a7b4:	e2832004 	add	r2, r3, #4, 0
    a7b8:	e58d200c 	str	r2, [sp, #12]
    a7bc:	e5934000 	ldr	r4, [r3]
    a7c0:	e3540000 	cmp	r4, #0, 0
    a7c4:	ba000005 	blt	a7e0 <vprintk+0x380>
    a7c8:	e3a02000 	mov	r2, #0, 0
    a7cc:	e1a01004 	mov	r1, r4
    a7d0:	e3a0000a 	mov	r0, #10, 0
    a7d4:	ebfffea0 	bl	a25c <emit_val>
    a7d8:	e1a04005 	mov	r4, r5
    a7dc:	eaffff27 	b	a480 <vprintk+0x20>
    a7e0:	e59f3090 	ldr	r3, [pc, #144]	; a878 <vprintk+0x418>
    a7e4:	e5933000 	ldr	r3, [r3]
    a7e8:	e3a0002d 	mov	r0, #45, 0	; 0x2d
    a7ec:	e12fff33 	blx	r3
    a7f0:	e2644000 	rsb	r4, r4, #0, 0
    a7f4:	eafffff3 	b	a7c8 <vprintk+0x368>
    a7f8:	e59d300c 	ldr	r3, [sp, #12]
    a7fc:	e2832004 	add	r2, r3, #4, 0
    a800:	e58d200c 	str	r2, [sp, #12]
    a804:	e5934000 	ldr	r4, [r3]
    a808:	ea000003 	b	a81c <vprintk+0x3bc>
    a80c:	e59f3064 	ldr	r3, [pc, #100]	; a878 <vprintk+0x418>
    a810:	e5933000 	ldr	r3, [r3]
    a814:	e12fff33 	blx	r3
    a818:	e2844001 	add	r4, r4, #1, 0
    a81c:	e5d40000 	ldrb	r0, [r4]
    a820:	e3500000 	cmp	r0, #0, 0
    a824:	1afffff8 	bne	a80c <vprintk+0x3ac>
    a828:	e1a04005 	mov	r4, r5
    a82c:	eaffff13 	b	a480 <vprintk+0x20>
    a830:	e59d300c 	ldr	r3, [sp, #12]
    a834:	e2833007 	add	r3, r3, #7, 0
    a838:	e3c33007 	bic	r3, r3, #7, 0
    a83c:	e2832008 	add	r2, r3, #8, 0
    a840:	e58d200c 	str	r2, [sp, #12]
    a844:	ed930b00 	vldr	d0, [r3]
    a848:	ebfffed2 	bl	a398 <__emit_float>
    a84c:	e1a04005 	mov	r4, r5
    a850:	eaffff0a 	b	a480 <vprintk+0x20>
    a854:	e58d2000 	str	r2, [sp]
    a858:	e3a030aa 	mov	r3, #170, 0	; 0xaa
    a85c:	e59f2018 	ldr	r2, [pc, #24]	; a87c <vprintk+0x41c>
    a860:	e59f1018 	ldr	r1, [pc, #24]	; a880 <vprintk+0x420>
    a864:	e59f0020 	ldr	r0, [pc, #32]	; a88c <vprintk+0x42c>
    a868:	ebfffe70 	bl	a230 <printk>
    a86c:	eb00002d 	bl	a928 <clean_reboot>
    a870:	e28dd014 	add	sp, sp, #20, 0
    a874:	e8bd8030 	pop	{r4, r5, pc}
    a878:	0000b5c8 	.word	0x0000b5c8
    a87c:	0000b54c 	.word	0x0000b54c
    a880:	0000b450 	.word	0x0000b450
    a884:	0000b4a8 	.word	0x0000b4a8
    a888:	0000b4e0 	.word	0x0000b4e0
    a88c:	0000b518 	.word	0x0000b518

0000a890 <default_putchar>:
    a890:	e92d4010 	push	{r4, lr}
    a894:	e1a04000 	mov	r4, r0
    a898:	e6ef0070 	uxtb	r0, r0
    a89c:	eb0000dc 	bl	ac14 <uart_put8>
    a8a0:	e1a00004 	mov	r0, r4
    a8a4:	e8bd8010 	pop	{r4, pc}

0000a8a8 <rpi_putchar_set>:
    a8a8:	e59f300c 	ldr	r3, [pc, #12]	; a8bc <rpi_putchar_set+0x14>
    a8ac:	e5932000 	ldr	r2, [r3]
    a8b0:	e5830000 	str	r0, [r3]
    a8b4:	e1a00002 	mov	r0, r2
    a8b8:	e12fff1e 	bx	lr
    a8bc:	0000b5c8 	.word	0x0000b5c8

0000a8c0 <strlen>:
    a8c0:	e1a02000 	mov	r2, r0
    a8c4:	e3a00000 	mov	r0, #0, 0
    a8c8:	e7d23000 	ldrb	r3, [r2, r0]
    a8cc:	e3530000 	cmp	r3, #0, 0
    a8d0:	012fff1e 	bxeq	lr
    a8d4:	e2800001 	add	r0, r0, #1, 0
    a8d8:	eafffffa 	b	a8c8 <strlen+0x8>

0000a8dc <caches_enable>:
    a8dc:	ee113f10 	mrc	15, 0, r3, cr1, cr0, {0}
    a8e0:	e3833b06 	orr	r3, r3, #6144	; 0x1800
    a8e4:	ee013f10 	mcr	15, 0, r3, cr1, cr0, {0}
    a8e8:	e12fff1e 	bx	lr

0000a8ec <caches_disable>:
    a8ec:	ee113f10 	mrc	15, 0, r3, cr1, cr0, {0}
    a8f0:	e3c33b06 	bic	r3, r3, #6144	; 0x1800
    a8f4:	ee013f10 	mcr	15, 0, r3, cr1, cr0, {0}
    a8f8:	e12fff1e 	bx	lr

0000a8fc <caches_is_enabled>:
    a8fc:	ee113f10 	mrc	15, 0, r3, cr1, cr0, {0}
    a900:	e3130a01 	tst	r3, #4096	; 0x1000
    a904:	0a000003 	beq	a918 <caches_is_enabled+0x1c>
    a908:	e3130b02 	tst	r3, #2048	; 0x800
    a90c:	0a000003 	beq	a920 <caches_is_enabled+0x24>
    a910:	e3a00001 	mov	r0, #1, 0
    a914:	e12fff1e 	bx	lr
    a918:	e3a00000 	mov	r0, #0, 0
    a91c:	e12fff1e 	bx	lr
    a920:	e3a00000 	mov	r0, #0, 0
    a924:	e12fff1e 	bx	lr

0000a928 <clean_reboot>:
    a928:	e92d4010 	push	{r4, lr}
    a92c:	e59f0010 	ldr	r0, [pc, #16]	; a944 <clean_reboot+0x1c>
    a930:	eb000151 	bl	ae7c <putk>
    a934:	eb0000d1 	bl	ac80 <uart_flush_tx>
    a938:	e3a0000a 	mov	r0, #10, 0
    a93c:	eb00003c 	bl	aa34 <delay_ms>
    a940:	eb000017 	bl	a9a4 <rpi_reboot>
    a944:	0000b554 	.word	0x0000b554

0000a948 <program_end>:
    a948:	e59f0000 	ldr	r0, [pc]	; a950 <program_end+0x8>
    a94c:	e12fff1e 	bx	lr
    a950:	0000e610 	.word	0x0000e610

0000a954 <_cstart>:
    a954:	e92d4010 	push	{r4, lr}
    a958:	e59f3024 	ldr	r3, [pc, #36]	; a984 <_cstart+0x30>
    a95c:	e59f2024 	ldr	r2, [pc, #36]	; a988 <_cstart+0x34>
    a960:	e1530002 	cmp	r3, r2
    a964:	33a02000 	movcc	r2, #0, 0
    a968:	34c32001 	strbcc	r2, [r3], #1
    a96c:	3afffffa 	bcc	a95c <_cstart+0x8>
    a970:	eb000078 	bl	ab58 <uart_init>
    a974:	e3a03001 	mov	r3, #1, 0
    a978:	ee0f3f1c 	mcr	15, 0, r3, cr15, cr12, {0}
    a97c:	ebfff723 	bl	8610 <notmain>
    a980:	ebffffe8 	bl	a928 <clean_reboot>
    a984:	0000b5d0 	.word	0x0000b5d0
    a988:	0000e610 	.word	0x0000e610

0000a98c <dev_barrier>:
    a98c:	ea000002 	b	a99c <dsb>

0000a990 <dmb>:
    a990:	e3a00000 	mov	r0, #0, 0
    a994:	ee070fba 	mcr	15, 0, r0, cr7, cr10, {5}
    a998:	e12fff1e 	bx	lr

0000a99c <dsb>:
    a99c:	ee070f9a 	mcr	15, 0, r0, cr7, cr10, {4}
    a9a0:	e12fff1e 	bx	lr

0000a9a4 <rpi_reboot>:
    a9a4:	e92d4010 	push	{r4, lr}
    a9a8:	eb0000b4 	bl	ac80 <uart_flush_tx>
    a9ac:	e3a0000a 	mov	r0, #10, 0
    a9b0:	eb00001f 	bl	aa34 <delay_ms>
    a9b4:	e59f1014 	ldr	r1, [pc, #20]	; a9d0 <rpi_reboot+0x2c>
    a9b8:	e59f0014 	ldr	r0, [pc, #20]	; a9d4 <rpi_reboot+0x30>
    a9bc:	ebfff59e 	bl	803c <PUT32>
    a9c0:	e59f1010 	ldr	r1, [pc, #16]	; a9d8 <rpi_reboot+0x34>
    a9c4:	e59f0010 	ldr	r0, [pc, #16]	; a9dc <rpi_reboot+0x38>
    a9c8:	ebfff59b 	bl	803c <PUT32>
    a9cc:	eafffffe 	b	a9cc <rpi_reboot+0x28>
    a9d0:	5a000001 	.word	0x5a000001
    a9d4:	20100024 	.word	0x20100024
    a9d8:	5a000020 	.word	0x5a000020
    a9dc:	2010001c 	.word	0x2010001c

0000a9e0 <timer_get_usec_raw>:
    a9e0:	e92d4010 	push	{r4, lr}
    a9e4:	e59f0004 	ldr	r0, [pc, #4]	; a9f0 <timer_get_usec_raw+0x10>
    a9e8:	ebfff595 	bl	8044 <GET32>
    a9ec:	e8bd8010 	pop	{r4, pc}
    a9f0:	20003004 	.word	0x20003004

0000a9f4 <timer_get_usec>:
    a9f4:	e92d4010 	push	{r4, lr}
    a9f8:	ebffffe3 	bl	a98c <dev_barrier>
    a9fc:	ebfffff7 	bl	a9e0 <timer_get_usec_raw>
    aa00:	e1a04000 	mov	r4, r0
    aa04:	ebffffe0 	bl	a98c <dev_barrier>
    aa08:	e1a00004 	mov	r0, r4
    aa0c:	e8bd8010 	pop	{r4, pc}

0000aa10 <delay_us>:
    aa10:	e92d4070 	push	{r4, r5, r6, lr}
    aa14:	e1a05000 	mov	r5, r0
    aa18:	ebfffff5 	bl	a9f4 <timer_get_usec>
    aa1c:	e1a04000 	mov	r4, r0
    aa20:	ebfffff3 	bl	a9f4 <timer_get_usec>
    aa24:	e0400004 	sub	r0, r0, r4
    aa28:	e1500005 	cmp	r0, r5
    aa2c:	3afffffb 	bcc	aa20 <delay_us+0x10>
    aa30:	e8bd8070 	pop	{r4, r5, r6, pc}

0000aa34 <delay_ms>:
    aa34:	e92d4010 	push	{r4, lr}
    aa38:	e0603280 	rsb	r3, r0, r0, lsl #5
    aa3c:	e0800103 	add	r0, r0, r3, lsl #2
    aa40:	e1a00180 	lsl	r0, r0, #3
    aa44:	ebfffff1 	bl	aa10 <delay_us>
    aa48:	e8bd8010 	pop	{r4, pc}

0000aa4c <delay_sec>:
    aa4c:	e92d4010 	push	{r4, lr}
    aa50:	e0603280 	rsb	r3, r0, r0, lsl #5
    aa54:	e0800103 	add	r0, r0, r3, lsl #2
    aa58:	e1a00180 	lsl	r0, r0, #3
    aa5c:	ebfffff4 	bl	aa34 <delay_ms>
    aa60:	e8bd8010 	pop	{r4, pc}

0000aa64 <and_in32>:
    aa64:	e92d4070 	push	{r4, r5, r6, lr}
    aa68:	e1a04000 	mov	r4, r0
    aa6c:	e1a05001 	mov	r5, r1
    aa70:	ebfff573 	bl	8044 <GET32>
    aa74:	e0001005 	and	r1, r0, r5
    aa78:	e1a00004 	mov	r0, r4
    aa7c:	ebfff56e 	bl	803c <PUT32>
    aa80:	e8bd8070 	pop	{r4, r5, r6, pc}

0000aa84 <or_in32>:
    aa84:	e92d4070 	push	{r4, r5, r6, lr}
    aa88:	e1a04000 	mov	r4, r0
    aa8c:	e1a05001 	mov	r5, r1
    aa90:	ebfff56b 	bl	8044 <GET32>
    aa94:	e1801005 	orr	r1, r0, r5
    aa98:	e1a00004 	mov	r0, r4
    aa9c:	ebfff566 	bl	803c <PUT32>
    aaa0:	e8bd8070 	pop	{r4, r5, r6, pc}

0000aaa4 <uart_init_div>:
    aaa4:	e92d4070 	push	{r4, r5, r6, lr}
    aaa8:	e1a04000 	mov	r4, r0
    aaac:	ebffffb6 	bl	a98c <dev_barrier>
    aab0:	e3a01002 	mov	r1, #2, 0
    aab4:	e3a0000e 	mov	r0, #14, 0
    aab8:	eb000081 	bl	acc4 <gpio_set_function>
    aabc:	e3a01002 	mov	r1, #2, 0
    aac0:	e3a0000f 	mov	r0, #15, 0
    aac4:	eb00007e 	bl	acc4 <gpio_set_function>
    aac8:	ebffffaf 	bl	a98c <dev_barrier>
    aacc:	e3a01001 	mov	r1, #1, 0
    aad0:	e59f0064 	ldr	r0, [pc, #100]	; ab3c <uart_init_div+0x98>
    aad4:	ebffffea 	bl	aa84 <or_in32>
    aad8:	ebffffab 	bl	a98c <dev_barrier>
    aadc:	e59f505c 	ldr	r5, [pc, #92]	; ab40 <uart_init_div+0x9c>
    aae0:	e3a01000 	mov	r1, #0, 0
    aae4:	e1a00005 	mov	r0, r5
    aae8:	ebfff553 	bl	803c <PUT32>
    aaec:	e3a01000 	mov	r1, #0, 0
    aaf0:	e59f004c 	ldr	r0, [pc, #76]	; ab44 <uart_init_div+0xa0>
    aaf4:	ebfff550 	bl	803c <PUT32>
    aaf8:	e3a01003 	mov	r1, #3, 0
    aafc:	e59f0044 	ldr	r0, [pc, #68]	; ab48 <uart_init_div+0xa4>
    ab00:	ebfff54d 	bl	803c <PUT32>
    ab04:	e3a01000 	mov	r1, #0, 0
    ab08:	e59f003c 	ldr	r0, [pc, #60]	; ab4c <uart_init_div+0xa8>
    ab0c:	ebfff54a 	bl	803c <PUT32>
    ab10:	e3a01006 	mov	r1, #6, 0
    ab14:	e59f0034 	ldr	r0, [pc, #52]	; ab50 <uart_init_div+0xac>
    ab18:	ebfff547 	bl	803c <PUT32>
    ab1c:	e1a01004 	mov	r1, r4
    ab20:	e59f002c 	ldr	r0, [pc, #44]	; ab54 <uart_init_div+0xb0>
    ab24:	ebfff544 	bl	803c <PUT32>
    ab28:	e3a01003 	mov	r1, #3, 0
    ab2c:	e1a00005 	mov	r0, r5
    ab30:	ebfff541 	bl	803c <PUT32>
    ab34:	ebffff94 	bl	a98c <dev_barrier>
    ab38:	e8bd8070 	pop	{r4, r5, r6, pc}
    ab3c:	20215004 	.word	0x20215004
    ab40:	20215060 	.word	0x20215060
    ab44:	20215044 	.word	0x20215044
    ab48:	2021504c 	.word	0x2021504c
    ab4c:	20215050 	.word	0x20215050
    ab50:	20215048 	.word	0x20215048
    ab54:	20215068 	.word	0x20215068

0000ab58 <uart_init>:
    ab58:	e92d4010 	push	{r4, lr}
    ab5c:	e59f0004 	ldr	r0, [pc, #4]	; ab68 <uart_init+0x10>
    ab60:	ebffffcf 	bl	aaa4 <uart_init_div>
    ab64:	e8bd8010 	pop	{r4, pc}
    ab68:	0000010e 	.word	0x0000010e

0000ab6c <uart_rx_disable>:
    ab6c:	e92d4010 	push	{r4, lr}
    ab70:	ebffff85 	bl	a98c <dev_barrier>
    ab74:	e3a01002 	mov	r1, #2, 0
    ab78:	e59f0008 	ldr	r0, [pc, #8]	; ab88 <uart_rx_disable+0x1c>
    ab7c:	ebfff52e 	bl	803c <PUT32>
    ab80:	ebffff81 	bl	a98c <dev_barrier>
    ab84:	e8bd8010 	pop	{r4, pc}
    ab88:	20215060 	.word	0x20215060

0000ab8c <uart_can_getc>:
    ab8c:	e92d4010 	push	{r4, lr}
    ab90:	e59f0008 	ldr	r0, [pc, #8]	; aba0 <uart_can_getc+0x14>
    ab94:	ebfff52a 	bl	8044 <GET32>
    ab98:	e2000001 	and	r0, r0, #1, 0
    ab9c:	e8bd8010 	pop	{r4, pc}
    aba0:	20215064 	.word	0x20215064

0000aba4 <uart_can_get8>:
    aba4:	e92d4010 	push	{r4, lr}
    aba8:	ebfffff7 	bl	ab8c <uart_can_getc>
    abac:	e8bd8010 	pop	{r4, pc}

0000abb0 <uart_can_putc>:
    abb0:	e92d4010 	push	{r4, lr}
    abb4:	e59f0010 	ldr	r0, [pc, #16]	; abcc <uart_can_putc+0x1c>
    abb8:	ebfff521 	bl	8044 <GET32>
    abbc:	e3100002 	tst	r0, #2, 0
    abc0:	13a00001 	movne	r0, #1, 0
    abc4:	03a00000 	moveq	r0, #0, 0
    abc8:	e8bd8010 	pop	{r4, pc}
    abcc:	20215064 	.word	0x20215064

0000abd0 <uart_can_put8>:
    abd0:	e92d4010 	push	{r4, lr}
    abd4:	ebfffff5 	bl	abb0 <uart_can_putc>
    abd8:	e8bd8010 	pop	{r4, pc}

0000abdc <uart_get8>:
    abdc:	e92d4010 	push	{r4, lr}
    abe0:	ebffff69 	bl	a98c <dev_barrier>
    abe4:	ea000000 	b	abec <uart_get8+0x10>
    abe8:	eb0000b0 	bl	aeb0 <rpi_wait>
    abec:	ebffffe6 	bl	ab8c <uart_can_getc>
    abf0:	e3500000 	cmp	r0, #0, 0
    abf4:	0afffffb 	beq	abe8 <uart_get8+0xc>
    abf8:	e59f0010 	ldr	r0, [pc, #16]	; ac10 <uart_get8+0x34>
    abfc:	ebfff510 	bl	8044 <GET32>
    ac00:	e6ef4070 	uxtb	r4, r0
    ac04:	ebffff60 	bl	a98c <dev_barrier>
    ac08:	e1a00004 	mov	r0, r4
    ac0c:	e8bd8010 	pop	{r4, pc}
    ac10:	20215040 	.word	0x20215040

0000ac14 <uart_put8>:
    ac14:	e92d4010 	push	{r4, lr}
    ac18:	e1a04000 	mov	r4, r0
    ac1c:	ebffff5a 	bl	a98c <dev_barrier>
    ac20:	ea000000 	b	ac28 <uart_put8+0x14>
    ac24:	eb0000a1 	bl	aeb0 <rpi_wait>
    ac28:	ebffffe0 	bl	abb0 <uart_can_putc>
    ac2c:	e3500000 	cmp	r0, #0, 0
    ac30:	0afffffb 	beq	ac24 <uart_put8+0x10>
    ac34:	e1a01004 	mov	r1, r4
    ac38:	e59f000c 	ldr	r0, [pc, #12]	; ac4c <uart_put8+0x38>
    ac3c:	ebfff4fe 	bl	803c <PUT32>
    ac40:	ebffff51 	bl	a98c <dev_barrier>
    ac44:	e3a00001 	mov	r0, #1, 0
    ac48:	e8bd8010 	pop	{r4, pc}
    ac4c:	20215040 	.word	0x20215040

0000ac50 <uart_has_data>:
    ac50:	e92d4010 	push	{r4, lr}
    ac54:	ebffff4c 	bl	a98c <dev_barrier>
    ac58:	ebffffcb 	bl	ab8c <uart_can_getc>
    ac5c:	e8bd8010 	pop	{r4, pc}

0000ac60 <uart_tx_is_empty>:
    ac60:	e92d4010 	push	{r4, lr}
    ac64:	ebffff48 	bl	a98c <dev_barrier>
    ac68:	e59f000c 	ldr	r0, [pc, #12]	; ac7c <uart_tx_is_empty+0x1c>
    ac6c:	ebfff4f4 	bl	8044 <GET32>
    ac70:	e1a004a0 	lsr	r0, r0, #9
    ac74:	e2000001 	and	r0, r0, #1, 0
    ac78:	e8bd8010 	pop	{r4, pc}
    ac7c:	20215064 	.word	0x20215064

0000ac80 <uart_flush_tx>:
    ac80:	e92d4010 	push	{r4, lr}
    ac84:	ea000000 	b	ac8c <uart_flush_tx+0xc>
    ac88:	eb000088 	bl	aeb0 <rpi_wait>
    ac8c:	ebfffff3 	bl	ac60 <uart_tx_is_empty>
    ac90:	e3500000 	cmp	r0, #0, 0
    ac94:	0afffffb 	beq	ac88 <uart_flush_tx+0x8>
    ac98:	e8bd8010 	pop	{r4, pc}

0000ac9c <uart_disable>:
    ac9c:	e92d4010 	push	{r4, lr}
    aca0:	ebfffff6 	bl	ac80 <uart_flush_tx>
    aca4:	ebffff38 	bl	a98c <dev_barrier>
    aca8:	e3e01001 	mvn	r1, #1, 0
    acac:	e59f0008 	ldr	r0, [pc, #8]	; acbc <uart_disable+0x20>
    acb0:	ebffff6b 	bl	aa64 <and_in32>
    acb4:	ebffff34 	bl	a98c <dev_barrier>
    acb8:	e8bd8010 	pop	{r4, pc}
    acbc:	20215004 	.word	0x20215004

0000acc0 <using_staff_uart>:
    acc0:	e12fff1e 	bx	lr

0000acc4 <gpio_set_function>:
    acc4:	e92d4070 	push	{r4, r5, r6, lr}
    acc8:	e24dd008 	sub	sp, sp, #8, 0
    accc:	e3500035 	cmp	r0, #53, 0	; 0x35
    acd0:	8a000015 	bhi	ad2c <gpio_set_function+0x68>
    acd4:	e1a06001 	mov	r6, r1
    acd8:	e3d13007 	bics	r3, r1, #7, 0
    acdc:	1a000019 	bne	ad48 <gpio_set_function+0x84>
    ace0:	e59f307c 	ldr	r3, [pc, #124]	; ad64 <gpio_set_function+0xa0>
    ace4:	e0832093 	umull	r2, r3, r3, r0
    ace8:	e1a031a3 	lsr	r3, r3, #3
    acec:	e1a02003 	mov	r2, r3
    acf0:	e0833103 	add	r3, r3, r3, lsl #2
    acf4:	e0403083 	sub	r3, r0, r3, lsl #1
    acf8:	e0834083 	add	r4, r3, r3, lsl #1
    acfc:	e2820302 	add	r0, r2, #134217728	; 0x8000000
    ad00:	e2800702 	add	r0, r0, #524288	; 0x80000
    ad04:	e1a05100 	lsl	r5, r0, #2
    ad08:	e1a00005 	mov	r0, r5
    ad0c:	ebfff4cc 	bl	8044 <GET32>
    ad10:	e3a01007 	mov	r1, #7, 0
    ad14:	e1c01411 	bic	r1, r0, r1, lsl r4
    ad18:	e1811416 	orr	r1, r1, r6, lsl r4
    ad1c:	e1a00005 	mov	r0, r5
    ad20:	ebfff4c5 	bl	803c <PUT32>
    ad24:	e28dd008 	add	sp, sp, #8, 0
    ad28:	e8bd8070 	pop	{r4, r5, r6, pc}
    ad2c:	e58d0000 	str	r0, [sp]
    ad30:	e3a0303e 	mov	r3, #62, 0	; 0x3e
    ad34:	e59f202c 	ldr	r2, [pc, #44]	; ad68 <gpio_set_function+0xa4>
    ad38:	e59f102c 	ldr	r1, [pc, #44]	; ad6c <gpio_set_function+0xa8>
    ad3c:	e59f002c 	ldr	r0, [pc, #44]	; ad70 <gpio_set_function+0xac>
    ad40:	ebfffd3a 	bl	a230 <printk>
    ad44:	ebfffef7 	bl	a928 <clean_reboot>
    ad48:	e58d1000 	str	r1, [sp]
    ad4c:	e3a03040 	mov	r3, #64, 0	; 0x40
    ad50:	e59f2010 	ldr	r2, [pc, #16]	; ad68 <gpio_set_function+0xa4>
    ad54:	e59f1010 	ldr	r1, [pc, #16]	; ad6c <gpio_set_function+0xa8>
    ad58:	e59f0014 	ldr	r0, [pc, #20]	; ad74 <gpio_set_function+0xb0>
    ad5c:	ebfffd33 	bl	a230 <printk>
    ad60:	ebfffef0 	bl	a928 <clean_reboot>
    ad64:	cccccccd 	.word	0xcccccccd
    ad68:	0000b5b4 	.word	0x0000b5b4
    ad6c:	0000b560 	.word	0x0000b560
    ad70:	0000b568 	.word	0x0000b568
    ad74:	0000b590 	.word	0x0000b590

0000ad78 <gpio_set_output>:
    ad78:	e92d4010 	push	{r4, lr}
    ad7c:	e3a01001 	mov	r1, #1, 0
    ad80:	ebffffcf 	bl	acc4 <gpio_set_function>
    ad84:	e8bd8010 	pop	{r4, pc}

0000ad88 <gpio_set_on>:
    ad88:	e92d4010 	push	{r4, lr}
    ad8c:	e350001f 	cmp	r0, #31, 0
    ad90:	9a000005 	bls	adac <gpio_set_on+0x24>
    ad94:	e200001f 	and	r0, r0, #31, 0
    ad98:	e3a01001 	mov	r1, #1, 0
    ad9c:	e1a01011 	lsl	r1, r1, r0
    ada0:	e59f0018 	ldr	r0, [pc, #24]	; adc0 <gpio_set_on+0x38>
    ada4:	ebfff4a4 	bl	803c <PUT32>
    ada8:	e8bd8010 	pop	{r4, pc}
    adac:	e3a01001 	mov	r1, #1, 0
    adb0:	e1a01011 	lsl	r1, r1, r0
    adb4:	e59f0008 	ldr	r0, [pc, #8]	; adc4 <gpio_set_on+0x3c>
    adb8:	ebfff49f 	bl	803c <PUT32>
    adbc:	e8bd8010 	pop	{r4, pc}
    adc0:	20200020 	.word	0x20200020
    adc4:	2020001c 	.word	0x2020001c

0000adc8 <gpio_set_off>:
    adc8:	e92d4010 	push	{r4, lr}
    adcc:	e350001f 	cmp	r0, #31, 0
    add0:	9a000005 	bls	adec <gpio_set_off+0x24>
    add4:	e200001f 	and	r0, r0, #31, 0
    add8:	e3a01001 	mov	r1, #1, 0
    addc:	e1a01011 	lsl	r1, r1, r0
    ade0:	e59f0018 	ldr	r0, [pc, #24]	; ae00 <gpio_set_off+0x38>
    ade4:	ebfff494 	bl	803c <PUT32>
    ade8:	e8bd8010 	pop	{r4, pc}
    adec:	e3a01001 	mov	r1, #1, 0
    adf0:	e1a01011 	lsl	r1, r1, r0
    adf4:	e59f0008 	ldr	r0, [pc, #8]	; ae04 <gpio_set_off+0x3c>
    adf8:	ebfff48f 	bl	803c <PUT32>
    adfc:	e8bd8010 	pop	{r4, pc}
    ae00:	2020002c 	.word	0x2020002c
    ae04:	20200028 	.word	0x20200028

0000ae08 <gpio_set_input>:
    ae08:	e92d4010 	push	{r4, lr}
    ae0c:	e3a01000 	mov	r1, #0, 0
    ae10:	ebffffab 	bl	acc4 <gpio_set_function>
    ae14:	e8bd8010 	pop	{r4, pc}

0000ae18 <gpio_write>:
    ae18:	e92d4010 	push	{r4, lr}
    ae1c:	e3510000 	cmp	r1, #0, 0
    ae20:	0a000001 	beq	ae2c <gpio_write+0x14>
    ae24:	ebffffd7 	bl	ad88 <gpio_set_on>
    ae28:	e8bd8010 	pop	{r4, pc}
    ae2c:	ebffffe5 	bl	adc8 <gpio_set_off>
    ae30:	e8bd8010 	pop	{r4, pc}

0000ae34 <gpio_read>:
    ae34:	e92d4010 	push	{r4, lr}
    ae38:	e1a04000 	mov	r4, r0
    ae3c:	e350001f 	cmp	r0, #31, 0
    ae40:	8a000004 	bhi	ae58 <gpio_read+0x24>
    ae44:	e59f0024 	ldr	r0, [pc, #36]	; ae70 <gpio_read+0x3c>
    ae48:	ebfff47d 	bl	8044 <GET32>
    ae4c:	e1a00430 	lsr	r0, r0, r4
    ae50:	e2000001 	and	r0, r0, #1, 0
    ae54:	e8bd8010 	pop	{r4, pc}
    ae58:	e59f0014 	ldr	r0, [pc, #20]	; ae74 <gpio_read+0x40>
    ae5c:	ebfff478 	bl	8044 <GET32>
    ae60:	e204401f 	and	r4, r4, #31, 0
    ae64:	e1a00430 	lsr	r0, r0, r4
    ae68:	e2000001 	and	r0, r0, #1, 0
    ae6c:	e8bd8010 	pop	{r4, pc}
    ae70:	20200034 	.word	0x20200034
    ae74:	20200038 	.word	0x20200038

0000ae78 <using_staff_gpio>:
    ae78:	e12fff1e 	bx	lr

0000ae7c <putk>:
    ae7c:	e92d4010 	push	{r4, lr}
    ae80:	e1a04000 	mov	r4, r0
    ae84:	e5d40000 	ldrb	r0, [r4]
    ae88:	e3500000 	cmp	r0, #0, 0
    ae8c:	0a000004 	beq	aea4 <putk+0x28>
    ae90:	e59f3014 	ldr	r3, [pc, #20]	; aeac <putk+0x30>
    ae94:	e5933000 	ldr	r3, [r3]
    ae98:	e12fff33 	blx	r3
    ae9c:	e2844001 	add	r4, r4, #1, 0
    aea0:	eafffff7 	b	ae84 <putk+0x8>
    aea4:	e3a00001 	mov	r0, #1, 0
    aea8:	e8bd8010 	pop	{r4, pc}
    aeac:	0000b5c8 	.word	0x0000b5c8

0000aeb0 <rpi_wait>:
    aeb0:	e12fff1e 	bx	lr

0000aeb4 <__udivsi3>:
    aeb4:	e2512001 	subs	r2, r1, #1, 0
    aeb8:	012fff1e 	bxeq	lr
    aebc:	3a000036 	bcc	af9c <__udivsi3+0xe8>
    aec0:	e1500001 	cmp	r0, r1
    aec4:	9a000022 	bls	af54 <__udivsi3+0xa0>
    aec8:	e1110002 	tst	r1, r2
    aecc:	0a000023 	beq	af60 <__udivsi3+0xac>
    aed0:	e311020e 	tst	r1, #-536870912	; 0xe0000000
    aed4:	01a01181 	lsleq	r1, r1, #3
    aed8:	03a03008 	moveq	r3, #8, 0
    aedc:	13a03001 	movne	r3, #1, 0
    aee0:	e3510201 	cmp	r1, #268435456	; 0x10000000
    aee4:	31510000 	cmpcc	r1, r0
    aee8:	31a01201 	lslcc	r1, r1, #4
    aeec:	31a03203 	lslcc	r3, r3, #4
    aef0:	3afffffa 	bcc	aee0 <__udivsi3+0x2c>
    aef4:	e3510102 	cmp	r1, #-2147483648	; 0x80000000
    aef8:	31510000 	cmpcc	r1, r0
    aefc:	31a01081 	lslcc	r1, r1, #1
    af00:	31a03083 	lslcc	r3, r3, #1
    af04:	3afffffa 	bcc	aef4 <__udivsi3+0x40>
    af08:	e3a02000 	mov	r2, #0, 0
    af0c:	e1500001 	cmp	r0, r1
    af10:	20400001 	subcs	r0, r0, r1
    af14:	21822003 	orrcs	r2, r2, r3
    af18:	e15000a1 	cmp	r0, r1, lsr #1
    af1c:	204000a1 	subcs	r0, r0, r1, lsr #1
    af20:	218220a3 	orrcs	r2, r2, r3, lsr #1
    af24:	e1500121 	cmp	r0, r1, lsr #2
    af28:	20400121 	subcs	r0, r0, r1, lsr #2
    af2c:	21822123 	orrcs	r2, r2, r3, lsr #2
    af30:	e15001a1 	cmp	r0, r1, lsr #3
    af34:	204001a1 	subcs	r0, r0, r1, lsr #3
    af38:	218221a3 	orrcs	r2, r2, r3, lsr #3
    af3c:	e3500000 	cmp	r0, #0, 0
    af40:	11b03223 	lsrsne	r3, r3, #4
    af44:	11a01221 	lsrne	r1, r1, #4
    af48:	1affffef 	bne	af0c <__udivsi3+0x58>
    af4c:	e1a00002 	mov	r0, r2
    af50:	e12fff1e 	bx	lr
    af54:	03a00001 	moveq	r0, #1, 0
    af58:	13a00000 	movne	r0, #0, 0
    af5c:	e12fff1e 	bx	lr
    af60:	e3510801 	cmp	r1, #65536	; 0x10000
    af64:	21a01821 	lsrcs	r1, r1, #16
    af68:	23a02010 	movcs	r2, #16, 0
    af6c:	33a02000 	movcc	r2, #0, 0
    af70:	e3510c01 	cmp	r1, #256	; 0x100
    af74:	21a01421 	lsrcs	r1, r1, #8
    af78:	22822008 	addcs	r2, r2, #8, 0
    af7c:	e3510010 	cmp	r1, #16, 0
    af80:	21a01221 	lsrcs	r1, r1, #4
    af84:	22822004 	addcs	r2, r2, #4, 0
    af88:	e3510004 	cmp	r1, #4, 0
    af8c:	82822003 	addhi	r2, r2, #3, 0
    af90:	908220a1 	addls	r2, r2, r1, lsr #1
    af94:	e1a00230 	lsr	r0, r0, r2
    af98:	e12fff1e 	bx	lr
    af9c:	e3500000 	cmp	r0, #0, 0
    afa0:	13e00000 	mvnne	r0, #0, 0
    afa4:	ea000007 	b	afc8 <__aeabi_idiv0>

0000afa8 <__aeabi_uidivmod>:
    afa8:	e3510000 	cmp	r1, #0, 0
    afac:	0afffffa 	beq	af9c <__udivsi3+0xe8>
    afb0:	e92d4003 	push	{r0, r1, lr}
    afb4:	ebffffbe 	bl	aeb4 <__udivsi3>
    afb8:	e8bd4006 	pop	{r1, r2, lr}
    afbc:	e0030092 	mul	r3, r2, r0
    afc0:	e0411003 	sub	r1, r1, r3
    afc4:	e12fff1e 	bx	lr

0000afc8 <__aeabi_idiv0>:
    afc8:	e12fff1e 	bx	lr

0000afcc <__code_end__>:
    afcc:	00000000 	andeq	r0, r0, r0
