
objs/l1/l2/l3//speaker-send.elf:     file format elf32-littlearm


Disassembly of section .text:

00008000 <__code_start__>:
    8000:	ee110f50 	mrc	15, 0, r0, cr1, cr0, {2}
    8004:	e3800603 	orr	r0, r0, #3145728	; 0x300000
    8008:	e3800503 	orr	r0, r0, #12582912	; 0xc00000
    800c:	ee010f50 	mcr	15, 0, r0, cr1, cr0, {2}
    8010:	e3a00101 	mov	r0, #1073741824	; 0x40000000
    8014:	eee80a10 	vmsr	fpexc, r0
    8018:	e3a00013 	mov	r0, #19, 0
    801c:	e3800080 	orr	r0, r0, #128, 0	; 0x80
    8020:	e129f000 	msr	CPSR_fc, r0
    8024:	e3a01000 	mov	r1, #0, 0
    8028:	ee071f95 	mcr	15, 0, r1, cr7, cr5, {4}
    802c:	e3a0d302 	mov	sp, #134217728	; 0x8000000
    8030:	e3a0b000 	mov	fp, #0, 0
    8034:	eb000e84 	bl	ba4c <_cstart>
    8038:	eb000e97 	bl	ba9c <rpi_reboot>

0000803c <PUT32>:
    803c:	e5801000 	str	r1, [r0]
    8040:	e12fff1e 	bx	lr

00008044 <GET32>:
    8044:	e5900000 	ldr	r0, [r0]
    8048:	e12fff1e 	bx	lr

0000804c <BRANCHTO>:
    804c:	e12fff10 	bx	r0

00008050 <crc32_inc>:
    8050:	e1e02002 	mvn	r2, r2
    8054:	e241c001 	sub	ip, r1, #1, 0
    8058:	e3510000 	cmp	r1, #0, 0
    805c:	0a000007 	beq	8080 <crc32_inc+0x30>
    8060:	e4d03001 	ldrb	r3, [r0], #1
    8064:	e0233002 	eor	r3, r3, r2
    8068:	e6ef3073 	uxtb	r3, r3
    806c:	e59f1014 	ldr	r1, [pc, #20]	; 8088 <crc32_inc+0x38>
    8070:	e7913103 	ldr	r3, [r1, r3, lsl #2]
    8074:	e0232422 	eor	r2, r3, r2, lsr #8
    8078:	e1a0100c 	mov	r1, ip
    807c:	eafffff4 	b	8054 <crc32_inc+0x4>
    8080:	e1e00002 	mvn	r0, r2
    8084:	e12fff1e 	bx	lr
    8088:	0000cbf8 	.word	0x0000cbf8

0000808c <crc32>:
    808c:	e92d4010 	push	{r4, lr}
    8090:	e3a02000 	mov	r2, #0, 0
    8094:	ebffffed 	bl	8050 <crc32_inc>
    8098:	e8bd8010 	pop	{r4, pc}

0000809c <amplifier_enable>:
    809c:	e92d4010 	push	{r4, lr}
    80a0:	e3a00017 	mov	r0, #23, 0
    80a4:	eb000ed9 	bl	bc10 <gpio_set_output>
    80a8:	e3a00019 	mov	r0, #25, 0
    80ac:	eb000ed7 	bl	bc10 <gpio_set_output>
    80b0:	e3a01502 	mov	r1, #8388608	; 0x800000
    80b4:	e59f0010 	ldr	r0, [pc, #16]	; 80cc <amplifier_enable+0x30>
    80b8:	ebffffdf 	bl	803c <PUT32>
    80bc:	e3a01402 	mov	r1, #33554432	; 0x2000000
    80c0:	e59f0008 	ldr	r0, [pc, #8]	; 80d0 <amplifier_enable+0x34>
    80c4:	ebffffdc 	bl	803c <PUT32>
    80c8:	e8bd8010 	pop	{r4, pc}
    80cc:	20200028 	.word	0x20200028
    80d0:	2020001c 	.word	0x2020001c

000080d4 <play_random_start>:
    80d4:	e92d41f0 	push	{r4, r5, r6, r7, r8, lr}
    80d8:	e3a07000 	mov	r7, #0, 0
    80dc:	e3570093 	cmp	r7, #147, 0	; 0x93
    80e0:	88bd81f0 	pophi	{r4, r5, r6, r7, r8, pc}
    80e4:	e59f604c 	ldr	r6, [pc, #76]	; 8138 <play_random_start+0x64>
    80e8:	e5963000 	ldr	r3, [r6]
    80ec:	e1a03b23 	lsr	r3, r3, #22
    80f0:	e59f2044 	ldr	r2, [pc, #68]	; 813c <play_random_start+0x68>
    80f4:	e0821183 	add	r1, r2, r3, lsl #3
    80f8:	e7924183 	ldr	r4, [r2, r3, lsl #3]
    80fc:	e5918004 	ldr	r8, [r1, #4]
    8100:	eb000b57 	bl	ae64 <pi_random>
    8104:	e0854094 	umull	r4, r5, r4, r0
    8108:	e0255890 	mla	r5, r0, r8, r5
    810c:	e1a00fa4 	lsr	r0, r4, #31
    8110:	e1800085 	orr	r0, r0, r5, lsl #1
    8114:	e1a01fc5 	asr	r1, r5, #31
    8118:	e1a02000 	mov	r2, r0
    811c:	e1a03001 	mov	r3, r1
    8120:	eb000604 	bl	9938 <i2s_put_frame>
    8124:	e5963000 	ldr	r3, [r6]
    8128:	e2833301 	add	r3, r3, #67108864	; 0x4000000
    812c:	e5863000 	str	r3, [r6]
    8130:	e2877001 	add	r7, r7, #1, 0
    8134:	eaffffe8 	b	80dc <play_random_start+0x8>
    8138:	0000d668 	.word	0x0000d668
    813c:	0000d6f0 	.word	0x0000d6f0

00008140 <send_chunk>:
    8140:	e92d40f0 	push	{r4, r5, r6, r7, lr}
    8144:	e24dd02c 	sub	sp, sp, #44, 0	; 0x2c
    8148:	e1a04001 	mov	r4, r1
    814c:	e1a07002 	mov	r7, r2
    8150:	e6ff1070 	uxth	r1, r0
    8154:	e1a00004 	mov	r0, r4
    8158:	e0c010b8 	strh	r1, [r0], #8
    815c:	ebffffca 	bl	808c <crc32>
    8160:	e5840004 	str	r0, [r4, #4]
    8164:	ebffffda 	bl	80d4 <play_random_start>
    8168:	e3a03000 	mov	r3, #0, 0
    816c:	e3530001 	cmp	r3, #1, 0
    8170:	8a000005 	bhi	818c <send_chunk+0x4c>
    8174:	e28d2028 	add	r2, sp, #40, 0	; 0x28
    8178:	e0822003 	add	r2, r2, r3
    817c:	e3e01000 	mvn	r1, #0, 0
    8180:	e5421024 	strb	r1, [r2, #-36]	; 0xffffffdc
    8184:	e2833001 	add	r3, r3, #1, 0
    8188:	eafffff7 	b	816c <send_chunk+0x2c>
    818c:	e3a01000 	mov	r1, #0, 0
    8190:	ea000000 	b	8198 <send_chunk+0x58>
    8194:	e2811001 	add	r1, r1, #1, 0
    8198:	e3510001 	cmp	r1, #1, 0
    819c:	8a00000c 	bhi	81d4 <send_chunk+0x94>
    81a0:	e3a02000 	mov	r2, #0, 0
    81a4:	e3520007 	cmp	r2, #7, 0
    81a8:	8afffff9 	bhi	8194 <send_chunk+0x54>
    81ac:	e28d3028 	add	r3, sp, #40, 0	; 0x28
    81b0:	e0833001 	add	r3, r3, r1
    81b4:	e5533024 	ldrb	r3, [r3, #-36]	; 0xffffffdc
    81b8:	e1a03253 	asr	r3, r3, r2
    81bc:	e0820181 	add	r0, r2, r1, lsl #3
    81c0:	e2033001 	and	r3, r3, #1, 0
    81c4:	e28dc008 	add	ip, sp, #8, 0
    81c8:	e7cc3000 	strb	r3, [ip, r0]
    81cc:	e2822001 	add	r2, r2, #1, 0
    81d0:	eafffff3 	b	81a4 <send_chunk+0x64>
    81d4:	e3a06000 	mov	r6, #0, 0
    81d8:	ea000029 	b	8284 <send_chunk+0x144>
    81dc:	e59f25ec 	ldr	r2, [pc, #1516]	; 87d0 <send_chunk+0x690>
    81e0:	e0822103 	add	r2, r2, r3, lsl #2
    81e4:	e592e044 	ldr	lr, [r2, #68]	; 0x44
    81e8:	e592c004 	ldr	ip, [r2, #4]
    81ec:	e08cc00e 	add	ip, ip, lr
    81f0:	e582c004 	str	ip, [r2, #4]
    81f4:	e2833001 	add	r3, r3, #1, 0
    81f8:	e353000f 	cmp	r3, #15, 0
    81fc:	8a000010 	bhi	8244 <send_chunk+0x104>
    8200:	e28d2028 	add	r2, sp, #40, 0	; 0x28
    8204:	e0822003 	add	r2, r2, r3
    8208:	e5522020 	ldrb	r2, [r2, #-32]	; 0xffffffe0
    820c:	e3520000 	cmp	r2, #0, 0
    8210:	0afffff1 	beq	81dc <send_chunk+0x9c>
    8214:	e59f25b4 	ldr	r2, [pc, #1460]	; 87d0 <send_chunk+0x690>
    8218:	e0822103 	add	r2, r2, r3, lsl #2
    821c:	e5922004 	ldr	r2, [r2, #4]
    8220:	e1a02b22 	lsr	r2, r2, #22
    8224:	e59fc5a8 	ldr	ip, [pc, #1448]	; 87d4 <send_chunk+0x694>
    8228:	e1a02182 	lsl	r2, r2, #3
    822c:	e79ce002 	ldr	lr, [ip, r2]
    8230:	e08c2002 	add	r2, ip, r2
    8234:	e5922004 	ldr	r2, [r2, #4]
    8238:	e090000e 	adds	r0, r0, lr
    823c:	e0a11002 	adc	r1, r1, r2
    8240:	eaffffe5 	b	81dc <send_chunk+0x9c>
    8244:	e1a01d01 	lsl	r1, r1, #26
    8248:	e1811320 	orr	r1, r1, r0, lsr #6
    824c:	e1a00d00 	lsl	r0, r0, #26
    8250:	e1a00fa0 	lsr	r0, r0, #31
    8254:	e1800081 	orr	r0, r0, r1, lsl #1
    8258:	e1a01fc1 	asr	r1, r1, #31
    825c:	e1a02000 	mov	r2, r0
    8260:	e1a03001 	mov	r3, r1
    8264:	eb0005b3 	bl	9938 <i2s_put_frame>
    8268:	e2855001 	add	r5, r5, #1, 0
    826c:	e3550093 	cmp	r5, #147, 0	; 0x93
    8270:	93a03000 	movls	r3, #0, 0
    8274:	91a00003 	movls	r0, r3
    8278:	91a01003 	movls	r1, r3
    827c:	9affffdd 	bls	81f8 <send_chunk+0xb8>
    8280:	e2866001 	add	r6, r6, #1, 0
    8284:	e3560009 	cmp	r6, #9, 0
    8288:	d3a05000 	movle	r5, #0, 0
    828c:	dafffff6 	ble	826c <send_chunk+0x12c>
    8290:	e3a03000 	mov	r3, #0, 0
    8294:	ea000004 	b	82ac <send_chunk+0x16c>
    8298:	e3a0100f 	mov	r1, #15, 0
    829c:	e28d2028 	add	r2, sp, #40, 0	; 0x28
    82a0:	e0822003 	add	r2, r2, r3
    82a4:	e5421024 	strb	r1, [r2, #-36]	; 0xffffffdc
    82a8:	e2833001 	add	r3, r3, #1, 0
    82ac:	e3530001 	cmp	r3, #1, 0
    82b0:	8a000003 	bhi	82c4 <send_chunk+0x184>
    82b4:	e3570000 	cmp	r7, #0, 0
    82b8:	0afffff6 	beq	8298 <send_chunk+0x158>
    82bc:	e3a010f0 	mov	r1, #240, 0	; 0xf0
    82c0:	eafffff5 	b	829c <send_chunk+0x15c>
    82c4:	e3a01000 	mov	r1, #0, 0
    82c8:	ea000000 	b	82d0 <send_chunk+0x190>
    82cc:	e2811001 	add	r1, r1, #1, 0
    82d0:	e3510001 	cmp	r1, #1, 0
    82d4:	8a00000c 	bhi	830c <send_chunk+0x1cc>
    82d8:	e3a02000 	mov	r2, #0, 0
    82dc:	e3520007 	cmp	r2, #7, 0
    82e0:	8afffff9 	bhi	82cc <send_chunk+0x18c>
    82e4:	e28d3028 	add	r3, sp, #40, 0	; 0x28
    82e8:	e0833001 	add	r3, r3, r1
    82ec:	e5533024 	ldrb	r3, [r3, #-36]	; 0xffffffdc
    82f0:	e1a03253 	asr	r3, r3, r2
    82f4:	e0820181 	add	r0, r2, r1, lsl #3
    82f8:	e2033001 	and	r3, r3, #1, 0
    82fc:	e28dc008 	add	ip, sp, #8, 0
    8300:	e7cc3000 	strb	r3, [ip, r0]
    8304:	e2822001 	add	r2, r2, #1, 0
    8308:	eafffff3 	b	82dc <send_chunk+0x19c>
    830c:	e3a05000 	mov	r5, #0, 0
    8310:	ea000023 	b	83a4 <send_chunk+0x264>
    8314:	e59f34b4 	ldr	r3, [pc, #1204]	; 87d0 <send_chunk+0x690>
    8318:	e0833102 	add	r3, r3, r2, lsl #2
    831c:	e593e044 	ldr	lr, [r3, #68]	; 0x44
    8320:	e593c004 	ldr	ip, [r3, #4]
    8324:	e08cc00e 	add	ip, ip, lr
    8328:	e583c004 	str	ip, [r3, #4]
    832c:	e2822001 	add	r2, r2, #1, 0
    8330:	e352000f 	cmp	r2, #15, 0
    8334:	8a000010 	bhi	837c <send_chunk+0x23c>
    8338:	e28d3028 	add	r3, sp, #40, 0	; 0x28
    833c:	e0833002 	add	r3, r3, r2
    8340:	e5533020 	ldrb	r3, [r3, #-32]	; 0xffffffe0
    8344:	e3530000 	cmp	r3, #0, 0
    8348:	0afffff1 	beq	8314 <send_chunk+0x1d4>
    834c:	e59f347c 	ldr	r3, [pc, #1148]	; 87d0 <send_chunk+0x690>
    8350:	e0833102 	add	r3, r3, r2, lsl #2
    8354:	e5933004 	ldr	r3, [r3, #4]
    8358:	e1a03b23 	lsr	r3, r3, #22
    835c:	e59fc470 	ldr	ip, [pc, #1136]	; 87d4 <send_chunk+0x694>
    8360:	e1a03183 	lsl	r3, r3, #3
    8364:	e79ce003 	ldr	lr, [ip, r3]
    8368:	e08c3003 	add	r3, ip, r3
    836c:	e5933004 	ldr	r3, [r3, #4]
    8370:	e090000e 	adds	r0, r0, lr
    8374:	e0a11003 	adc	r1, r1, r3
    8378:	eaffffe5 	b	8314 <send_chunk+0x1d4>
    837c:	e1a01d01 	lsl	r1, r1, #26
    8380:	e1811320 	orr	r1, r1, r0, lsr #6
    8384:	e1a00d00 	lsl	r0, r0, #26
    8388:	e1a00fa0 	lsr	r0, r0, #31
    838c:	e1800081 	orr	r0, r0, r1, lsl #1
    8390:	e1a01fc1 	asr	r1, r1, #31
    8394:	e1a02000 	mov	r2, r0
    8398:	e1a03001 	mov	r3, r1
    839c:	eb000565 	bl	9938 <i2s_put_frame>
    83a0:	e2855001 	add	r5, r5, #1, 0
    83a4:	e3550093 	cmp	r5, #147, 0	; 0x93
    83a8:	93a02000 	movls	r2, #0, 0
    83ac:	91a00002 	movls	r0, r2
    83b0:	91a01002 	movls	r1, r2
    83b4:	9affffdd 	bls	8330 <send_chunk+0x1f0>
    83b8:	e1d430b0 	ldrh	r3, [r4]
    83bc:	e5945004 	ldr	r5, [r4, #4]
    83c0:	e1a02423 	lsr	r2, r3, #8
    83c4:	e5cd2001 	strb	r2, [sp, #1]
    83c8:	e5cd3000 	strb	r3, [sp]
    83cc:	e3a01000 	mov	r1, #0, 0
    83d0:	ea00000b 	b	8404 <send_chunk+0x2c4>
    83d4:	e28d3028 	add	r3, sp, #40, 0	; 0x28
    83d8:	e0833001 	add	r3, r3, r1
    83dc:	e5533028 	ldrb	r3, [r3, #-40]	; 0xffffffd8
    83e0:	e1a03253 	asr	r3, r3, r2
    83e4:	e0820181 	add	r0, r2, r1, lsl #3
    83e8:	e2033001 	and	r3, r3, #1, 0
    83ec:	e28dc008 	add	ip, sp, #8, 0
    83f0:	e7cc3000 	strb	r3, [ip, r0]
    83f4:	e2822001 	add	r2, r2, #1, 0
    83f8:	e3520007 	cmp	r2, #7, 0
    83fc:	9afffff4 	bls	83d4 <send_chunk+0x294>
    8400:	e2811001 	add	r1, r1, #1, 0
    8404:	e3510001 	cmp	r1, #1, 0
    8408:	93a02000 	movls	r2, #0, 0
    840c:	9afffff9 	bls	83f8 <send_chunk+0x2b8>
    8410:	e3a06000 	mov	r6, #0, 0
    8414:	ea000023 	b	84a8 <send_chunk+0x368>
    8418:	e59f33b0 	ldr	r3, [pc, #944]	; 87d0 <send_chunk+0x690>
    841c:	e0833102 	add	r3, r3, r2, lsl #2
    8420:	e593e044 	ldr	lr, [r3, #68]	; 0x44
    8424:	e593c004 	ldr	ip, [r3, #4]
    8428:	e08cc00e 	add	ip, ip, lr
    842c:	e583c004 	str	ip, [r3, #4]
    8430:	e2822001 	add	r2, r2, #1, 0
    8434:	e352000f 	cmp	r2, #15, 0
    8438:	8a000010 	bhi	8480 <send_chunk+0x340>
    843c:	e28d3028 	add	r3, sp, #40, 0	; 0x28
    8440:	e0833002 	add	r3, r3, r2
    8444:	e5533020 	ldrb	r3, [r3, #-32]	; 0xffffffe0
    8448:	e3530000 	cmp	r3, #0, 0
    844c:	0afffff1 	beq	8418 <send_chunk+0x2d8>
    8450:	e59f3378 	ldr	r3, [pc, #888]	; 87d0 <send_chunk+0x690>
    8454:	e0833102 	add	r3, r3, r2, lsl #2
    8458:	e5933004 	ldr	r3, [r3, #4]
    845c:	e1a03b23 	lsr	r3, r3, #22
    8460:	e59fc36c 	ldr	ip, [pc, #876]	; 87d4 <send_chunk+0x694>
    8464:	e1a03183 	lsl	r3, r3, #3
    8468:	e79ce003 	ldr	lr, [ip, r3]
    846c:	e08c3003 	add	r3, ip, r3
    8470:	e5933004 	ldr	r3, [r3, #4]
    8474:	e090000e 	adds	r0, r0, lr
    8478:	e0a11003 	adc	r1, r1, r3
    847c:	eaffffe5 	b	8418 <send_chunk+0x2d8>
    8480:	e1a01d01 	lsl	r1, r1, #26
    8484:	e1811320 	orr	r1, r1, r0, lsr #6
    8488:	e1a00d00 	lsl	r0, r0, #26
    848c:	e1a00fa0 	lsr	r0, r0, #31
    8490:	e1800081 	orr	r0, r0, r1, lsl #1
    8494:	e1a01fc1 	asr	r1, r1, #31
    8498:	e1a02000 	mov	r2, r0
    849c:	e1a03001 	mov	r3, r1
    84a0:	eb000524 	bl	9938 <i2s_put_frame>
    84a4:	e2866001 	add	r6, r6, #1, 0
    84a8:	e3560093 	cmp	r6, #147, 0	; 0x93
    84ac:	93a02000 	movls	r2, #0, 0
    84b0:	91a00002 	movls	r0, r2
    84b4:	91a01002 	movls	r1, r2
    84b8:	9affffdd 	bls	8434 <send_chunk+0x2f4>
    84bc:	e5cd5004 	strb	r5, [sp, #4]
    84c0:	e1a03425 	lsr	r3, r5, #8
    84c4:	e5cd3005 	strb	r3, [sp, #5]
    84c8:	e3a01000 	mov	r1, #0, 0
    84cc:	ea000000 	b	84d4 <send_chunk+0x394>
    84d0:	e2811001 	add	r1, r1, #1, 0
    84d4:	e3510001 	cmp	r1, #1, 0
    84d8:	8a00000c 	bhi	8510 <send_chunk+0x3d0>
    84dc:	e3a02000 	mov	r2, #0, 0
    84e0:	e3520007 	cmp	r2, #7, 0
    84e4:	8afffff9 	bhi	84d0 <send_chunk+0x390>
    84e8:	e28d3028 	add	r3, sp, #40, 0	; 0x28
    84ec:	e0833001 	add	r3, r3, r1
    84f0:	e5533024 	ldrb	r3, [r3, #-36]	; 0xffffffdc
    84f4:	e1a03253 	asr	r3, r3, r2
    84f8:	e0820181 	add	r0, r2, r1, lsl #3
    84fc:	e2033001 	and	r3, r3, #1, 0
    8500:	e28dc008 	add	ip, sp, #8, 0
    8504:	e7cc3000 	strb	r3, [ip, r0]
    8508:	e2822001 	add	r2, r2, #1, 0
    850c:	eafffff3 	b	84e0 <send_chunk+0x3a0>
    8510:	e3a06000 	mov	r6, #0, 0
    8514:	ea000023 	b	85a8 <send_chunk+0x468>
    8518:	e59f32b0 	ldr	r3, [pc, #688]	; 87d0 <send_chunk+0x690>
    851c:	e0833102 	add	r3, r3, r2, lsl #2
    8520:	e593e044 	ldr	lr, [r3, #68]	; 0x44
    8524:	e593c004 	ldr	ip, [r3, #4]
    8528:	e08cc00e 	add	ip, ip, lr
    852c:	e583c004 	str	ip, [r3, #4]
    8530:	e2822001 	add	r2, r2, #1, 0
    8534:	e352000f 	cmp	r2, #15, 0
    8538:	8a000010 	bhi	8580 <send_chunk+0x440>
    853c:	e28d3028 	add	r3, sp, #40, 0	; 0x28
    8540:	e0833002 	add	r3, r3, r2
    8544:	e5533020 	ldrb	r3, [r3, #-32]	; 0xffffffe0
    8548:	e3530000 	cmp	r3, #0, 0
    854c:	0afffff1 	beq	8518 <send_chunk+0x3d8>
    8550:	e59f3278 	ldr	r3, [pc, #632]	; 87d0 <send_chunk+0x690>
    8554:	e0833102 	add	r3, r3, r2, lsl #2
    8558:	e5933004 	ldr	r3, [r3, #4]
    855c:	e1a03b23 	lsr	r3, r3, #22
    8560:	e59fc26c 	ldr	ip, [pc, #620]	; 87d4 <send_chunk+0x694>
    8564:	e1a03183 	lsl	r3, r3, #3
    8568:	e79ce003 	ldr	lr, [ip, r3]
    856c:	e08c3003 	add	r3, ip, r3
    8570:	e5933004 	ldr	r3, [r3, #4]
    8574:	e090000e 	adds	r0, r0, lr
    8578:	e0a11003 	adc	r1, r1, r3
    857c:	eaffffe5 	b	8518 <send_chunk+0x3d8>
    8580:	e1a01d01 	lsl	r1, r1, #26
    8584:	e1811320 	orr	r1, r1, r0, lsr #6
    8588:	e1a00d00 	lsl	r0, r0, #26
    858c:	e1a00fa0 	lsr	r0, r0, #31
    8590:	e1800081 	orr	r0, r0, r1, lsl #1
    8594:	e1a01fc1 	asr	r1, r1, #31
    8598:	e1a02000 	mov	r2, r0
    859c:	e1a03001 	mov	r3, r1
    85a0:	eb0004e4 	bl	9938 <i2s_put_frame>
    85a4:	e2866001 	add	r6, r6, #1, 0
    85a8:	e3560093 	cmp	r6, #147, 0	; 0x93
    85ac:	93a02000 	movls	r2, #0, 0
    85b0:	91a00002 	movls	r0, r2
    85b4:	91a01002 	movls	r1, r2
    85b8:	9affffdd 	bls	8534 <send_chunk+0x3f4>
    85bc:	e1a03825 	lsr	r3, r5, #16
    85c0:	e5cd3004 	strb	r3, [sp, #4]
    85c4:	e1a05c25 	lsr	r5, r5, #24
    85c8:	e5cd5005 	strb	r5, [sp, #5]
    85cc:	e3a01000 	mov	r1, #0, 0
    85d0:	ea00000b 	b	8604 <send_chunk+0x4c4>
    85d4:	e28d3028 	add	r3, sp, #40, 0	; 0x28
    85d8:	e0833001 	add	r3, r3, r1
    85dc:	e5533024 	ldrb	r3, [r3, #-36]	; 0xffffffdc
    85e0:	e1a03253 	asr	r3, r3, r2
    85e4:	e0820181 	add	r0, r2, r1, lsl #3
    85e8:	e2033001 	and	r3, r3, #1, 0
    85ec:	e28dc008 	add	ip, sp, #8, 0
    85f0:	e7cc3000 	strb	r3, [ip, r0]
    85f4:	e2822001 	add	r2, r2, #1, 0
    85f8:	e3520007 	cmp	r2, #7, 0
    85fc:	9afffff4 	bls	85d4 <send_chunk+0x494>
    8600:	e2811001 	add	r1, r1, #1, 0
    8604:	e3510001 	cmp	r1, #1, 0
    8608:	93a02000 	movls	r2, #0, 0
    860c:	9afffff9 	bls	85f8 <send_chunk+0x4b8>
    8610:	e3a05000 	mov	r5, #0, 0
    8614:	ea000023 	b	86a8 <send_chunk+0x568>
    8618:	e59f31b0 	ldr	r3, [pc, #432]	; 87d0 <send_chunk+0x690>
    861c:	e0833102 	add	r3, r3, r2, lsl #2
    8620:	e593e044 	ldr	lr, [r3, #68]	; 0x44
    8624:	e593c004 	ldr	ip, [r3, #4]
    8628:	e08cc00e 	add	ip, ip, lr
    862c:	e583c004 	str	ip, [r3, #4]
    8630:	e2822001 	add	r2, r2, #1, 0
    8634:	e352000f 	cmp	r2, #15, 0
    8638:	8a000010 	bhi	8680 <send_chunk+0x540>
    863c:	e28d3028 	add	r3, sp, #40, 0	; 0x28
    8640:	e0833002 	add	r3, r3, r2
    8644:	e5533020 	ldrb	r3, [r3, #-32]	; 0xffffffe0
    8648:	e3530000 	cmp	r3, #0, 0
    864c:	0afffff1 	beq	8618 <send_chunk+0x4d8>
    8650:	e59f3178 	ldr	r3, [pc, #376]	; 87d0 <send_chunk+0x690>
    8654:	e0833102 	add	r3, r3, r2, lsl #2
    8658:	e5933004 	ldr	r3, [r3, #4]
    865c:	e1a03b23 	lsr	r3, r3, #22
    8660:	e59fc16c 	ldr	ip, [pc, #364]	; 87d4 <send_chunk+0x694>
    8664:	e1a03183 	lsl	r3, r3, #3
    8668:	e79ce003 	ldr	lr, [ip, r3]
    866c:	e08c3003 	add	r3, ip, r3
    8670:	e5933004 	ldr	r3, [r3, #4]
    8674:	e090000e 	adds	r0, r0, lr
    8678:	e0a11003 	adc	r1, r1, r3
    867c:	eaffffe5 	b	8618 <send_chunk+0x4d8>
    8680:	e1a01d01 	lsl	r1, r1, #26
    8684:	e1811320 	orr	r1, r1, r0, lsr #6
    8688:	e1a00d00 	lsl	r0, r0, #26
    868c:	e1a00fa0 	lsr	r0, r0, #31
    8690:	e1800081 	orr	r0, r0, r1, lsl #1
    8694:	e1a01fc1 	asr	r1, r1, #31
    8698:	e1a02000 	mov	r2, r0
    869c:	e1a03001 	mov	r3, r1
    86a0:	eb0004a4 	bl	9938 <i2s_put_frame>
    86a4:	e2855001 	add	r5, r5, #1, 0
    86a8:	e3550093 	cmp	r5, #147, 0	; 0x93
    86ac:	93a02000 	movls	r2, #0, 0
    86b0:	91a00002 	movls	r0, r2
    86b4:	91a01002 	movls	r1, r2
    86b8:	9affffdd 	bls	8634 <send_chunk+0x4f4>
    86bc:	e3a06000 	mov	r6, #0, 0
    86c0:	ea000038 	b	87a8 <send_chunk+0x668>
    86c4:	e7de3001 	ldrb	r3, [lr, r1]
    86c8:	e1a03253 	asr	r3, r3, r2
    86cc:	e0820181 	add	r0, r2, r1, lsl #3
    86d0:	e2033001 	and	r3, r3, #1, 0
    86d4:	e28dc018 	add	ip, sp, #24, 0
    86d8:	e7cc3000 	strb	r3, [ip, r0]
    86dc:	e2822001 	add	r2, r2, #1, 0
    86e0:	e3520007 	cmp	r2, #7, 0
    86e4:	9afffff6 	bls	86c4 <send_chunk+0x584>
    86e8:	e2811001 	add	r1, r1, #1, 0
    86ec:	e3510001 	cmp	r1, #1, 0
    86f0:	93a02000 	movls	r2, #0, 0
    86f4:	9afffff9 	bls	86e0 <send_chunk+0x5a0>
    86f8:	e3a05000 	mov	r5, #0, 0
    86fc:	ea000023 	b	8790 <send_chunk+0x650>
    8700:	e59f20c8 	ldr	r2, [pc, #200]	; 87d0 <send_chunk+0x690>
    8704:	e0822103 	add	r2, r2, r3, lsl #2
    8708:	e592e044 	ldr	lr, [r2, #68]	; 0x44
    870c:	e592c004 	ldr	ip, [r2, #4]
    8710:	e08cc00e 	add	ip, ip, lr
    8714:	e582c004 	str	ip, [r2, #4]
    8718:	e2833001 	add	r3, r3, #1, 0
    871c:	e353000f 	cmp	r3, #15, 0
    8720:	8a000010 	bhi	8768 <send_chunk+0x628>
    8724:	e28d2028 	add	r2, sp, #40, 0	; 0x28
    8728:	e0822003 	add	r2, r2, r3
    872c:	e5522010 	ldrb	r2, [r2, #-16]
    8730:	e3520000 	cmp	r2, #0, 0
    8734:	0afffff1 	beq	8700 <send_chunk+0x5c0>
    8738:	e59f2090 	ldr	r2, [pc, #144]	; 87d0 <send_chunk+0x690>
    873c:	e0822103 	add	r2, r2, r3, lsl #2
    8740:	e5922004 	ldr	r2, [r2, #4]
    8744:	e1a02b22 	lsr	r2, r2, #22
    8748:	e59fc084 	ldr	ip, [pc, #132]	; 87d4 <send_chunk+0x694>
    874c:	e1a02182 	lsl	r2, r2, #3
    8750:	e79ce002 	ldr	lr, [ip, r2]
    8754:	e08c2002 	add	r2, ip, r2
    8758:	e5922004 	ldr	r2, [r2, #4]
    875c:	e090000e 	adds	r0, r0, lr
    8760:	e0a11002 	adc	r1, r1, r2
    8764:	eaffffe5 	b	8700 <send_chunk+0x5c0>
    8768:	e1a01d01 	lsl	r1, r1, #26
    876c:	e1811320 	orr	r1, r1, r0, lsr #6
    8770:	e1a00d00 	lsl	r0, r0, #26
    8774:	e1a00fa0 	lsr	r0, r0, #31
    8778:	e1800081 	orr	r0, r0, r1, lsl #1
    877c:	e1a01fc1 	asr	r1, r1, #31
    8780:	e1a02000 	mov	r2, r0
    8784:	e1a03001 	mov	r3, r1
    8788:	eb00046a 	bl	9938 <i2s_put_frame>
    878c:	e2855001 	add	r5, r5, #1, 0
    8790:	e3550093 	cmp	r5, #147, 0	; 0x93
    8794:	93a03000 	movls	r3, #0, 0
    8798:	91a00003 	movls	r0, r3
    879c:	91a01003 	movls	r1, r3
    87a0:	9affffdd 	bls	871c <send_chunk+0x5dc>
    87a4:	e2866002 	add	r6, r6, #2, 0
    87a8:	e1d430b0 	ldrh	r3, [r4]
    87ac:	e1530006 	cmp	r3, r6
    87b0:	8286e008 	addhi	lr, r6, #8, 0
    87b4:	8084e00e 	addhi	lr, r4, lr
    87b8:	83a01000 	movhi	r1, #0, 0
    87bc:	8affffca 	bhi	86ec <send_chunk+0x5ac>
    87c0:	e3a00f7d 	mov	r0, #500	; 0x1f4
    87c4:	eb000ccf 	bl	bb08 <delay_us>
    87c8:	e28dd02c 	add	sp, sp, #44, 0	; 0x2c
    87cc:	e8bd80f0 	pop	{r4, r5, r6, r7, pc}
    87d0:	0000d668 	.word	0x0000d668
    87d4:	0000d6f0 	.word	0x0000d6f0

000087d8 <send_data>:
    87d8:	e92d4ff0 	push	{r4, r5, r6, r7, r8, r9, sl, fp, lr}
    87dc:	e24dda01 	sub	sp, sp, #4096	; 0x1000
    87e0:	e24dd02c 	sub	sp, sp, #44, 0	; 0x2c
    87e4:	e1a09000 	mov	r9, r0
    87e8:	e58d1004 	str	r1, [sp, #4]
    87ec:	e1a08621 	lsr	r8, r1, #12
    87f0:	e1a0ba01 	lsl	fp, r1, #20
    87f4:	e1a0ba2b 	lsr	fp, fp, #20
    87f8:	e35b0000 	cmp	fp, #0, 0
    87fc:	0a000003 	beq	8810 <send_data+0x38>
    8800:	e3a0a001 	mov	sl, #1, 0
    8804:	e08aa008 	add	sl, sl, r8
    8808:	e3a04000 	mov	r4, #0, 0
    880c:	ea000187 	b	8e30 <send_data+0x658>
    8810:	e1a0a00b 	mov	sl, fp
    8814:	eafffffa 	b	8804 <send_data+0x2c>
    8818:	e3a01000 	mov	r1, #0, 0
    881c:	ea000000 	b	8824 <send_data+0x4c>
    8820:	e2811001 	add	r1, r1, #1, 0
    8824:	e3510001 	cmp	r1, #1, 0
    8828:	8a00000b 	bhi	885c <send_data+0x84>
    882c:	e3a03000 	mov	r3, #0, 0
    8830:	e3530007 	cmp	r3, #7, 0
    8834:	8afffff9 	bhi	8820 <send_data+0x48>
    8838:	e28d200c 	add	r2, sp, #12, 0
    883c:	e7d22001 	ldrb	r2, [r2, r1]
    8840:	e1a02352 	asr	r2, r2, r3
    8844:	e083c181 	add	ip, r3, r1, lsl #3
    8848:	e28d0010 	add	r0, sp, #16, 0
    884c:	e2022001 	and	r2, r2, #1, 0
    8850:	e7c0200c 	strb	r2, [r0, ip]
    8854:	e2833001 	add	r3, r3, #1, 0
    8858:	eafffff4 	b	8830 <send_data+0x58>
    885c:	e3a06000 	mov	r6, #0, 0
    8860:	ea000028 	b	8908 <send_data+0x130>
    8864:	e59f2684 	ldr	r2, [pc, #1668]	; 8ef0 <send_data+0x718>
    8868:	e0822103 	add	r2, r2, r3, lsl #2
    886c:	e592e044 	ldr	lr, [r2, #68]	; 0x44
    8870:	e592c004 	ldr	ip, [r2, #4]
    8874:	e08cc00e 	add	ip, ip, lr
    8878:	e582c004 	str	ip, [r2, #4]
    887c:	e2833001 	add	r3, r3, #1, 0
    8880:	e353000f 	cmp	r3, #15, 0
    8884:	8a00000f 	bhi	88c8 <send_data+0xf0>
    8888:	e28d2010 	add	r2, sp, #16, 0
    888c:	e7d22003 	ldrb	r2, [r2, r3]
    8890:	e3520000 	cmp	r2, #0, 0
    8894:	0afffff2 	beq	8864 <send_data+0x8c>
    8898:	e59f2650 	ldr	r2, [pc, #1616]	; 8ef0 <send_data+0x718>
    889c:	e0822103 	add	r2, r2, r3, lsl #2
    88a0:	e5922004 	ldr	r2, [r2, #4]
    88a4:	e1a02b22 	lsr	r2, r2, #22
    88a8:	e59fc644 	ldr	ip, [pc, #1604]	; 8ef4 <send_data+0x71c>
    88ac:	e1a02182 	lsl	r2, r2, #3
    88b0:	e79ce002 	ldr	lr, [ip, r2]
    88b4:	e08c2002 	add	r2, ip, r2
    88b8:	e5922004 	ldr	r2, [r2, #4]
    88bc:	e090000e 	adds	r0, r0, lr
    88c0:	e0a11002 	adc	r1, r1, r2
    88c4:	eaffffe6 	b	8864 <send_data+0x8c>
    88c8:	e1a01d01 	lsl	r1, r1, #26
    88cc:	e1811320 	orr	r1, r1, r0, lsr #6
    88d0:	e1a00d00 	lsl	r0, r0, #26
    88d4:	e1a00fa0 	lsr	r0, r0, #31
    88d8:	e1800081 	orr	r0, r0, r1, lsl #1
    88dc:	e1a01fc1 	asr	r1, r1, #31
    88e0:	e1a02000 	mov	r2, r0
    88e4:	e1a03001 	mov	r3, r1
    88e8:	eb000412 	bl	9938 <i2s_put_frame>
    88ec:	e2855001 	add	r5, r5, #1, 0
    88f0:	e3550093 	cmp	r5, #147, 0	; 0x93
    88f4:	93a03000 	movls	r3, #0, 0
    88f8:	91a00003 	movls	r0, r3
    88fc:	91a01003 	movls	r1, r3
    8900:	9affffde 	bls	8880 <send_data+0xa8>
    8904:	e2866001 	add	r6, r6, #1, 0
    8908:	e3560009 	cmp	r6, #9, 0
    890c:	d3a05000 	movle	r5, #0, 0
    8910:	dafffff6 	ble	88f0 <send_data+0x118>
    8914:	e3a03000 	mov	r3, #0, 0
    8918:	ea000004 	b	8930 <send_data+0x158>
    891c:	e3a0100f 	mov	r1, #15, 0
    8920:	e28d2028 	add	r2, sp, #40, 0	; 0x28
    8924:	e0822003 	add	r2, r2, r3
    8928:	e542101c 	strb	r1, [r2, #-28]	; 0xffffffe4
    892c:	e2833001 	add	r3, r3, #1, 0
    8930:	e3530001 	cmp	r3, #1, 0
    8934:	8a000003 	bhi	8948 <send_data+0x170>
    8938:	e3570000 	cmp	r7, #0, 0
    893c:	0afffff6 	beq	891c <send_data+0x144>
    8940:	e3a010f0 	mov	r1, #240, 0	; 0xf0
    8944:	eafffff5 	b	8920 <send_data+0x148>
    8948:	e3a01000 	mov	r1, #0, 0
    894c:	ea000000 	b	8954 <send_data+0x17c>
    8950:	e2811001 	add	r1, r1, #1, 0
    8954:	e3510001 	cmp	r1, #1, 0
    8958:	8a00000b 	bhi	898c <send_data+0x1b4>
    895c:	e3a03000 	mov	r3, #0, 0
    8960:	e3530007 	cmp	r3, #7, 0
    8964:	8afffff9 	bhi	8950 <send_data+0x178>
    8968:	e28d200c 	add	r2, sp, #12, 0
    896c:	e7d22001 	ldrb	r2, [r2, r1]
    8970:	e1a02352 	asr	r2, r2, r3
    8974:	e083c181 	add	ip, r3, r1, lsl #3
    8978:	e28d0010 	add	r0, sp, #16, 0
    897c:	e2022001 	and	r2, r2, #1, 0
    8980:	e7c0200c 	strb	r2, [r0, ip]
    8984:	e2833001 	add	r3, r3, #1, 0
    8988:	eafffff4 	b	8960 <send_data+0x188>
    898c:	e3a05000 	mov	r5, #0, 0
    8990:	ea000022 	b	8a20 <send_data+0x248>
    8994:	e59f2554 	ldr	r2, [pc, #1364]	; 8ef0 <send_data+0x718>
    8998:	e0822103 	add	r2, r2, r3, lsl #2
    899c:	e5922004 	ldr	r2, [r2, #4]
    89a0:	e1a02b22 	lsr	r2, r2, #22
    89a4:	e59fc548 	ldr	ip, [pc, #1352]	; 8ef4 <send_data+0x71c>
    89a8:	e1a02182 	lsl	r2, r2, #3
    89ac:	e79ce002 	ldr	lr, [ip, r2]
    89b0:	e08c2002 	add	r2, ip, r2
    89b4:	e5922004 	ldr	r2, [r2, #4]
    89b8:	e090000e 	adds	r0, r0, lr
    89bc:	e0a11002 	adc	r1, r1, r2
    89c0:	e59f2528 	ldr	r2, [pc, #1320]	; 8ef0 <send_data+0x718>
    89c4:	e0822103 	add	r2, r2, r3, lsl #2
    89c8:	e592e044 	ldr	lr, [r2, #68]	; 0x44
    89cc:	e592c004 	ldr	ip, [r2, #4]
    89d0:	e08cc00e 	add	ip, ip, lr
    89d4:	e582c004 	str	ip, [r2, #4]
    89d8:	e2833001 	add	r3, r3, #1, 0
    89dc:	e353000f 	cmp	r3, #15, 0
    89e0:	8a000004 	bhi	89f8 <send_data+0x220>
    89e4:	e28d2010 	add	r2, sp, #16, 0
    89e8:	e7d22003 	ldrb	r2, [r2, r3]
    89ec:	e3520000 	cmp	r2, #0, 0
    89f0:	0afffff2 	beq	89c0 <send_data+0x1e8>
    89f4:	eaffffe6 	b	8994 <send_data+0x1bc>
    89f8:	e1a01d01 	lsl	r1, r1, #26
    89fc:	e1811320 	orr	r1, r1, r0, lsr #6
    8a00:	e1a00d00 	lsl	r0, r0, #26
    8a04:	e1a00fa0 	lsr	r0, r0, #31
    8a08:	e1800081 	orr	r0, r0, r1, lsl #1
    8a0c:	e1a01fc1 	asr	r1, r1, #31
    8a10:	e1a02000 	mov	r2, r0
    8a14:	e1a03001 	mov	r3, r1
    8a18:	eb0003c6 	bl	9938 <i2s_put_frame>
    8a1c:	e2855001 	add	r5, r5, #1, 0
    8a20:	e3550093 	cmp	r5, #147, 0	; 0x93
    8a24:	93a03000 	movls	r3, #0, 0
    8a28:	91a00003 	movls	r0, r3
    8a2c:	91a01003 	movls	r1, r3
    8a30:	9affffe9 	bls	89dc <send_data+0x204>
    8a34:	e1dd32b0 	ldrh	r3, [sp, #32]
    8a38:	e59d5024 	ldr	r5, [sp, #36]	; 0x24
    8a3c:	e1a02423 	lsr	r2, r3, #8
    8a40:	e5cd2009 	strb	r2, [sp, #9]
    8a44:	e5cd3008 	strb	r3, [sp, #8]
    8a48:	e3a01000 	mov	r1, #0, 0
    8a4c:	ea00000a 	b	8a7c <send_data+0x2a4>
    8a50:	e28d2008 	add	r2, sp, #8, 0
    8a54:	e7d22001 	ldrb	r2, [r2, r1]
    8a58:	e1a02352 	asr	r2, r2, r3
    8a5c:	e083c181 	add	ip, r3, r1, lsl #3
    8a60:	e28d0010 	add	r0, sp, #16, 0
    8a64:	e2022001 	and	r2, r2, #1, 0
    8a68:	e7c0200c 	strb	r2, [r0, ip]
    8a6c:	e2833001 	add	r3, r3, #1, 0
    8a70:	e3530007 	cmp	r3, #7, 0
    8a74:	9afffff5 	bls	8a50 <send_data+0x278>
    8a78:	e2811001 	add	r1, r1, #1, 0
    8a7c:	e3510001 	cmp	r1, #1, 0
    8a80:	93a03000 	movls	r3, #0, 0
    8a84:	9afffff9 	bls	8a70 <send_data+0x298>
    8a88:	e3a06000 	mov	r6, #0, 0
    8a8c:	ea000022 	b	8b1c <send_data+0x344>
    8a90:	e59f2458 	ldr	r2, [pc, #1112]	; 8ef0 <send_data+0x718>
    8a94:	e0822103 	add	r2, r2, r3, lsl #2
    8a98:	e592e044 	ldr	lr, [r2, #68]	; 0x44
    8a9c:	e592c004 	ldr	ip, [r2, #4]
    8aa0:	e08cc00e 	add	ip, ip, lr
    8aa4:	e582c004 	str	ip, [r2, #4]
    8aa8:	e2833001 	add	r3, r3, #1, 0
    8aac:	e353000f 	cmp	r3, #15, 0
    8ab0:	8a00000f 	bhi	8af4 <send_data+0x31c>
    8ab4:	e28d2010 	add	r2, sp, #16, 0
    8ab8:	e7d22003 	ldrb	r2, [r2, r3]
    8abc:	e3520000 	cmp	r2, #0, 0
    8ac0:	0afffff2 	beq	8a90 <send_data+0x2b8>
    8ac4:	e59f2424 	ldr	r2, [pc, #1060]	; 8ef0 <send_data+0x718>
    8ac8:	e0822103 	add	r2, r2, r3, lsl #2
    8acc:	e5922004 	ldr	r2, [r2, #4]
    8ad0:	e1a02b22 	lsr	r2, r2, #22
    8ad4:	e59fc418 	ldr	ip, [pc, #1048]	; 8ef4 <send_data+0x71c>
    8ad8:	e1a02182 	lsl	r2, r2, #3
    8adc:	e79ce002 	ldr	lr, [ip, r2]
    8ae0:	e08c2002 	add	r2, ip, r2
    8ae4:	e5922004 	ldr	r2, [r2, #4]
    8ae8:	e090000e 	adds	r0, r0, lr
    8aec:	e0a11002 	adc	r1, r1, r2
    8af0:	eaffffe6 	b	8a90 <send_data+0x2b8>
    8af4:	e1a01d01 	lsl	r1, r1, #26
    8af8:	e1811320 	orr	r1, r1, r0, lsr #6
    8afc:	e1a00d00 	lsl	r0, r0, #26
    8b00:	e1a00fa0 	lsr	r0, r0, #31
    8b04:	e1800081 	orr	r0, r0, r1, lsl #1
    8b08:	e1a01fc1 	asr	r1, r1, #31
    8b0c:	e1a02000 	mov	r2, r0
    8b10:	e1a03001 	mov	r3, r1
    8b14:	eb000387 	bl	9938 <i2s_put_frame>
    8b18:	e2866001 	add	r6, r6, #1, 0
    8b1c:	e3560093 	cmp	r6, #147, 0	; 0x93
    8b20:	93a03000 	movls	r3, #0, 0
    8b24:	91a00003 	movls	r0, r3
    8b28:	91a01003 	movls	r1, r3
    8b2c:	9affffde 	bls	8aac <send_data+0x2d4>
    8b30:	e5cd500c 	strb	r5, [sp, #12]
    8b34:	e1a03425 	lsr	r3, r5, #8
    8b38:	e5cd300d 	strb	r3, [sp, #13]
    8b3c:	e3a01000 	mov	r1, #0, 0
    8b40:	ea000000 	b	8b48 <send_data+0x370>
    8b44:	e2811001 	add	r1, r1, #1, 0
    8b48:	e3510001 	cmp	r1, #1, 0
    8b4c:	8a00000b 	bhi	8b80 <send_data+0x3a8>
    8b50:	e3a03000 	mov	r3, #0, 0
    8b54:	e3530007 	cmp	r3, #7, 0
    8b58:	8afffff9 	bhi	8b44 <send_data+0x36c>
    8b5c:	e28d200c 	add	r2, sp, #12, 0
    8b60:	e7d22001 	ldrb	r2, [r2, r1]
    8b64:	e1a02352 	asr	r2, r2, r3
    8b68:	e083c181 	add	ip, r3, r1, lsl #3
    8b6c:	e28d0010 	add	r0, sp, #16, 0
    8b70:	e2022001 	and	r2, r2, #1, 0
    8b74:	e7c0200c 	strb	r2, [r0, ip]
    8b78:	e2833001 	add	r3, r3, #1, 0
    8b7c:	eafffff4 	b	8b54 <send_data+0x37c>
    8b80:	e3a06000 	mov	r6, #0, 0
    8b84:	ea000022 	b	8c14 <send_data+0x43c>
    8b88:	e59f2360 	ldr	r2, [pc, #864]	; 8ef0 <send_data+0x718>
    8b8c:	e0822103 	add	r2, r2, r3, lsl #2
    8b90:	e592e044 	ldr	lr, [r2, #68]	; 0x44
    8b94:	e592c004 	ldr	ip, [r2, #4]
    8b98:	e08cc00e 	add	ip, ip, lr
    8b9c:	e582c004 	str	ip, [r2, #4]
    8ba0:	e2833001 	add	r3, r3, #1, 0
    8ba4:	e353000f 	cmp	r3, #15, 0
    8ba8:	8a00000f 	bhi	8bec <send_data+0x414>
    8bac:	e28d2010 	add	r2, sp, #16, 0
    8bb0:	e7d22003 	ldrb	r2, [r2, r3]
    8bb4:	e3520000 	cmp	r2, #0, 0
    8bb8:	0afffff2 	beq	8b88 <send_data+0x3b0>
    8bbc:	e59f232c 	ldr	r2, [pc, #812]	; 8ef0 <send_data+0x718>
    8bc0:	e0822103 	add	r2, r2, r3, lsl #2
    8bc4:	e5922004 	ldr	r2, [r2, #4]
    8bc8:	e1a02b22 	lsr	r2, r2, #22
    8bcc:	e59fc320 	ldr	ip, [pc, #800]	; 8ef4 <send_data+0x71c>
    8bd0:	e1a02182 	lsl	r2, r2, #3
    8bd4:	e79ce002 	ldr	lr, [ip, r2]
    8bd8:	e08c2002 	add	r2, ip, r2
    8bdc:	e5922004 	ldr	r2, [r2, #4]
    8be0:	e090000e 	adds	r0, r0, lr
    8be4:	e0a11002 	adc	r1, r1, r2
    8be8:	eaffffe6 	b	8b88 <send_data+0x3b0>
    8bec:	e1a01d01 	lsl	r1, r1, #26
    8bf0:	e1811320 	orr	r1, r1, r0, lsr #6
    8bf4:	e1a00d00 	lsl	r0, r0, #26
    8bf8:	e1a00fa0 	lsr	r0, r0, #31
    8bfc:	e1800081 	orr	r0, r0, r1, lsl #1
    8c00:	e1a01fc1 	asr	r1, r1, #31
    8c04:	e1a02000 	mov	r2, r0
    8c08:	e1a03001 	mov	r3, r1
    8c0c:	eb000349 	bl	9938 <i2s_put_frame>
    8c10:	e2866001 	add	r6, r6, #1, 0
    8c14:	e3560093 	cmp	r6, #147, 0	; 0x93
    8c18:	93a03000 	movls	r3, #0, 0
    8c1c:	91a00003 	movls	r0, r3
    8c20:	91a01003 	movls	r1, r3
    8c24:	9affffde 	bls	8ba4 <send_data+0x3cc>
    8c28:	e1a03825 	lsr	r3, r5, #16
    8c2c:	e5cd300c 	strb	r3, [sp, #12]
    8c30:	e1a05c25 	lsr	r5, r5, #24
    8c34:	e5cd500d 	strb	r5, [sp, #13]
    8c38:	e3a01000 	mov	r1, #0, 0
    8c3c:	ea00000a 	b	8c6c <send_data+0x494>
    8c40:	e28d200c 	add	r2, sp, #12, 0
    8c44:	e7d22001 	ldrb	r2, [r2, r1]
    8c48:	e1a02352 	asr	r2, r2, r3
    8c4c:	e083c181 	add	ip, r3, r1, lsl #3
    8c50:	e28d0010 	add	r0, sp, #16, 0
    8c54:	e2022001 	and	r2, r2, #1, 0
    8c58:	e7c0200c 	strb	r2, [r0, ip]
    8c5c:	e2833001 	add	r3, r3, #1, 0
    8c60:	e3530007 	cmp	r3, #7, 0
    8c64:	9afffff5 	bls	8c40 <send_data+0x468>
    8c68:	e2811001 	add	r1, r1, #1, 0
    8c6c:	e3510001 	cmp	r1, #1, 0
    8c70:	93a03000 	movls	r3, #0, 0
    8c74:	9afffff9 	bls	8c60 <send_data+0x488>
    8c78:	e3a05000 	mov	r5, #0, 0
    8c7c:	ea000022 	b	8d0c <send_data+0x534>
    8c80:	e59f2268 	ldr	r2, [pc, #616]	; 8ef0 <send_data+0x718>
    8c84:	e0822103 	add	r2, r2, r3, lsl #2
    8c88:	e592e044 	ldr	lr, [r2, #68]	; 0x44
    8c8c:	e592c004 	ldr	ip, [r2, #4]
    8c90:	e08cc00e 	add	ip, ip, lr
    8c94:	e582c004 	str	ip, [r2, #4]
    8c98:	e2833001 	add	r3, r3, #1, 0
    8c9c:	e353000f 	cmp	r3, #15, 0
    8ca0:	8a00000f 	bhi	8ce4 <send_data+0x50c>
    8ca4:	e28d2010 	add	r2, sp, #16, 0
    8ca8:	e7d22003 	ldrb	r2, [r2, r3]
    8cac:	e3520000 	cmp	r2, #0, 0
    8cb0:	0afffff2 	beq	8c80 <send_data+0x4a8>
    8cb4:	e59f2234 	ldr	r2, [pc, #564]	; 8ef0 <send_data+0x718>
    8cb8:	e0822103 	add	r2, r2, r3, lsl #2
    8cbc:	e5922004 	ldr	r2, [r2, #4]
    8cc0:	e1a02b22 	lsr	r2, r2, #22
    8cc4:	e59fc228 	ldr	ip, [pc, #552]	; 8ef4 <send_data+0x71c>
    8cc8:	e1a02182 	lsl	r2, r2, #3
    8ccc:	e79ce002 	ldr	lr, [ip, r2]
    8cd0:	e08c2002 	add	r2, ip, r2
    8cd4:	e5922004 	ldr	r2, [r2, #4]
    8cd8:	e090000e 	adds	r0, r0, lr
    8cdc:	e0a11002 	adc	r1, r1, r2
    8ce0:	eaffffe6 	b	8c80 <send_data+0x4a8>
    8ce4:	e1a01d01 	lsl	r1, r1, #26
    8ce8:	e1811320 	orr	r1, r1, r0, lsr #6
    8cec:	e1a00d00 	lsl	r0, r0, #26
    8cf0:	e1a00fa0 	lsr	r0, r0, #31
    8cf4:	e1800081 	orr	r0, r0, r1, lsl #1
    8cf8:	e1a01fc1 	asr	r1, r1, #31
    8cfc:	e1a02000 	mov	r2, r0
    8d00:	e1a03001 	mov	r3, r1
    8d04:	eb00030b 	bl	9938 <i2s_put_frame>
    8d08:	e2855001 	add	r5, r5, #1, 0
    8d0c:	e3550093 	cmp	r5, #147, 0	; 0x93
    8d10:	93a03000 	movls	r3, #0, 0
    8d14:	91a00003 	movls	r0, r3
    8d18:	91a01003 	movls	r1, r3
    8d1c:	9affffde 	bls	8c9c <send_data+0x4c4>
    8d20:	e3a05000 	mov	r5, #0, 0
    8d24:	ea000037 	b	8e08 <send_data+0x630>
    8d28:	e7d01003 	ldrb	r1, [r0, r3]
    8d2c:	e1a01251 	asr	r1, r1, r2
    8d30:	e082c183 	add	ip, r2, r3, lsl #3
    8d34:	e2011001 	and	r1, r1, #1, 0
    8d38:	e28de010 	add	lr, sp, #16, 0
    8d3c:	e7ce100c 	strb	r1, [lr, ip]
    8d40:	e2822001 	add	r2, r2, #1, 0
    8d44:	e3520007 	cmp	r2, #7, 0
    8d48:	9afffff6 	bls	8d28 <send_data+0x550>
    8d4c:	e2833001 	add	r3, r3, #1, 0
    8d50:	e3530001 	cmp	r3, #1, 0
    8d54:	93a02000 	movls	r2, #0, 0
    8d58:	9afffff9 	bls	8d44 <send_data+0x56c>
    8d5c:	e3a06000 	mov	r6, #0, 0
    8d60:	ea000022 	b	8df0 <send_data+0x618>
    8d64:	e59f2184 	ldr	r2, [pc, #388]	; 8ef0 <send_data+0x718>
    8d68:	e0822103 	add	r2, r2, r3, lsl #2
    8d6c:	e592e044 	ldr	lr, [r2, #68]	; 0x44
    8d70:	e592c004 	ldr	ip, [r2, #4]
    8d74:	e08cc00e 	add	ip, ip, lr
    8d78:	e582c004 	str	ip, [r2, #4]
    8d7c:	e2833001 	add	r3, r3, #1, 0
    8d80:	e353000f 	cmp	r3, #15, 0
    8d84:	8a00000f 	bhi	8dc8 <send_data+0x5f0>
    8d88:	e28d2010 	add	r2, sp, #16, 0
    8d8c:	e7d22003 	ldrb	r2, [r2, r3]
    8d90:	e3520000 	cmp	r2, #0, 0
    8d94:	0afffff2 	beq	8d64 <send_data+0x58c>
    8d98:	e59f2150 	ldr	r2, [pc, #336]	; 8ef0 <send_data+0x718>
    8d9c:	e0822103 	add	r2, r2, r3, lsl #2
    8da0:	e5922004 	ldr	r2, [r2, #4]
    8da4:	e1a02b22 	lsr	r2, r2, #22
    8da8:	e59fc144 	ldr	ip, [pc, #324]	; 8ef4 <send_data+0x71c>
    8dac:	e1a02182 	lsl	r2, r2, #3
    8db0:	e79ce002 	ldr	lr, [ip, r2]
    8db4:	e08c2002 	add	r2, ip, r2
    8db8:	e5922004 	ldr	r2, [r2, #4]
    8dbc:	e090000e 	adds	r0, r0, lr
    8dc0:	e0a11002 	adc	r1, r1, r2
    8dc4:	eaffffe6 	b	8d64 <send_data+0x58c>
    8dc8:	e1a01d01 	lsl	r1, r1, #26
    8dcc:	e1811320 	orr	r1, r1, r0, lsr #6
    8dd0:	e1a00d00 	lsl	r0, r0, #26
    8dd4:	e1a00fa0 	lsr	r0, r0, #31
    8dd8:	e1800081 	orr	r0, r0, r1, lsl #1
    8ddc:	e1a01fc1 	asr	r1, r1, #31
    8de0:	e1a02000 	mov	r2, r0
    8de4:	e1a03001 	mov	r3, r1
    8de8:	eb0002d2 	bl	9938 <i2s_put_frame>
    8dec:	e2866001 	add	r6, r6, #1, 0
    8df0:	e3560093 	cmp	r6, #147, 0	; 0x93
    8df4:	93a03000 	movls	r3, #0, 0
    8df8:	91a00003 	movls	r0, r3
    8dfc:	91a01003 	movls	r1, r3
    8e00:	9affffde 	bls	8d80 <send_data+0x5a8>
    8e04:	e2855002 	add	r5, r5, #2, 0
    8e08:	e1dd32b0 	ldrh	r3, [sp, #32]
    8e0c:	e1550003 	cmp	r5, r3
    8e10:	2a000004 	bcs	8e28 <send_data+0x650>
    8e14:	e2850008 	add	r0, r5, #8, 0
    8e18:	e28d3020 	add	r3, sp, #32, 0
    8e1c:	e0830000 	add	r0, r3, r0
    8e20:	e3a03000 	mov	r3, #0, 0
    8e24:	eaffffc9 	b	8d50 <send_data+0x578>
    8e28:	e3a00f7d 	mov	r0, #500	; 0x1f4
    8e2c:	eb000b35 	bl	bb08 <delay_us>
    8e30:	e1540008 	cmp	r4, r8
    8e34:	2a000016 	bcs	8e94 <send_data+0x6bc>
    8e38:	e3a02a01 	mov	r2, #4096	; 0x1000
    8e3c:	e0891604 	add	r1, r9, r4, lsl #12
    8e40:	e28d0028 	add	r0, sp, #40, 0	; 0x28
    8e44:	eb0007ad 	bl	ad00 <memcpy>
    8e48:	e2844001 	add	r4, r4, #1, 0
    8e4c:	e154000a 	cmp	r4, sl
    8e50:	13a07000 	movne	r7, #0, 0
    8e54:	03a07001 	moveq	r7, #1, 0
    8e58:	e3a01a01 	mov	r1, #4096	; 0x1000
    8e5c:	e1cd12b0 	strh	r1, [sp, #32]
    8e60:	e28d0028 	add	r0, sp, #40, 0	; 0x28
    8e64:	ebfffc88 	bl	808c <crc32>
    8e68:	e58d0024 	str	r0, [sp, #36]	; 0x24
    8e6c:	ebfffc98 	bl	80d4 <play_random_start>
    8e70:	e3a03000 	mov	r3, #0, 0
    8e74:	e3530001 	cmp	r3, #1, 0
    8e78:	8afffe66 	bhi	8818 <send_data+0x40>
    8e7c:	e28d2028 	add	r2, sp, #40, 0	; 0x28
    8e80:	e0822003 	add	r2, r2, r3
    8e84:	e3e01000 	mvn	r1, #0, 0
    8e88:	e542101c 	strb	r1, [r2, #-28]	; 0xffffffe4
    8e8c:	e2833001 	add	r3, r3, #1, 0
    8e90:	eafffff7 	b	8e74 <send_data+0x69c>
    8e94:	e35b0000 	cmp	fp, #0, 0
    8e98:	1a000008 	bne	8ec0 <send_data+0x6e8>
    8e9c:	e35b0000 	cmp	fp, #0, 0
    8ea0:	01a02008 	moveq	r2, r8
    8ea4:	12882001 	addne	r2, r8, #1, 0
    8ea8:	e59d1004 	ldr	r1, [sp, #4]
    8eac:	e59f0044 	ldr	r0, [pc, #68]	; 8ef8 <send_data+0x720>
    8eb0:	eb00084c 	bl	afe8 <printk>
    8eb4:	e28dda01 	add	sp, sp, #4096	; 0x1000
    8eb8:	e28dd02c 	add	sp, sp, #44, 0	; 0x2c
    8ebc:	e8bd8ff0 	pop	{r4, r5, r6, r7, r8, r9, sl, fp, pc}
    8ec0:	e59d3004 	ldr	r3, [sp, #4]
    8ec4:	e3c31eff 	bic	r1, r3, #4080	; 0xff0
    8ec8:	e3c1100f 	bic	r1, r1, #15, 0
    8ecc:	e1a0200b 	mov	r2, fp
    8ed0:	e0891001 	add	r1, r9, r1
    8ed4:	e28d0028 	add	r0, sp, #40, 0	; 0x28
    8ed8:	eb000788 	bl	ad00 <memcpy>
    8edc:	e3a02001 	mov	r2, #1, 0
    8ee0:	e28d1020 	add	r1, sp, #32, 0
    8ee4:	e1a0000b 	mov	r0, fp
    8ee8:	ebfffc94 	bl	8140 <send_chunk>
    8eec:	eaffffea 	b	8e9c <send_data+0x6c4>
    8ef0:	0000d668 	.word	0x0000d668
    8ef4:	0000d6f0 	.word	0x0000d6f0
    8ef8:	0000cba0 	.word	0x0000cba0

00008efc <notmain>:
    8efc:	e92d4070 	push	{r4, r5, r6, lr}
    8f00:	e24dd018 	sub	sp, sp, #24, 0
    8f04:	ebfffc64 	bl	809c <amplifier_enable>
    8f08:	e3a00cfa 	mov	r0, #64000	; 0xfa00
    8f0c:	eb000239 	bl	97f8 <i2s_init>
    8f10:	eb00026a 	bl	98c0 <i2s_tx_enable>
    8f14:	e3a00064 	mov	r0, #100, 0	; 0x64
    8f18:	eb000b03 	bl	bb2c <delay_ms>
    8f1c:	e59f3364 	ldr	r3, [pc, #868]	; 9288 <notmain+0x38c>
    8f20:	e5933084 	ldr	r3, [r3, #132]	; 0x84
    8f24:	e3530000 	cmp	r3, #0, 0
    8f28:	1a000017 	bne	8f8c <notmain+0x90>
    8f2c:	e3a04000 	mov	r4, #0, 0
    8f30:	e3540b01 	cmp	r4, #1024	; 0x400
    8f34:	2a000011 	bcs	8f80 <notmain+0x84>
    8f38:	ee074a90 	vmov	s15, r4
    8f3c:	eeb87b67 	vcvt.f64.u32	d7, s15
    8f40:	ed9f6bc6 	vldr	d6, [pc, #792]	; 9260 <notmain+0x364>
    8f44:	ee277b06 	vmul.f64	d7, d7, d6
    8f48:	ed9f6bc6 	vldr	d6, [pc, #792]	; 9268 <notmain+0x36c>
    8f4c:	ee277b06 	vmul.f64	d7, d7, d6
    8f50:	ec510b17 	vmov	r0, r1, d7
    8f54:	eb0002fa 	bl	9b44 <sin>
    8f58:	ec410b16 	vmov	d6, r0, r1
    8f5c:	ed9f7bc3 	vldr	d7, [pc, #780]	; 9270 <notmain+0x374>
    8f60:	ee267b07 	vmul.f64	d7, d6, d7
    8f64:	ec510b17 	vmov	r0, r1, d7
    8f68:	eb000ccf 	bl	c2ac <__aeabi_d2lz>
    8f6c:	e1a03184 	lsl	r3, r4, #3
    8f70:	e59f2314 	ldr	r2, [pc, #788]	; 928c <notmain+0x390>
    8f74:	e18200f3 	strd	r0, [r2, r3]
    8f78:	e2844001 	add	r4, r4, #1, 0
    8f7c:	eaffffeb 	b	8f30 <notmain+0x34>
    8f80:	e59f3300 	ldr	r3, [pc, #768]	; 9288 <notmain+0x38c>
    8f84:	e3a02001 	mov	r2, #1, 0
    8f88:	e5832084 	str	r2, [r3, #132]	; 0x84
    8f8c:	e3a01000 	mov	r1, #0, 0
    8f90:	ea000010 	b	8fd8 <notmain+0xdc>
    8f94:	e2812001 	add	r2, r1, #1, 0
    8f98:	e0623282 	rsb	r3, r2, r2, lsl #5
    8f9c:	e0823103 	add	r3, r2, r3, lsl #2
    8fa0:	e1a03183 	lsl	r3, r3, #3
    8fa4:	ee073a90 	vmov	s15, r3
    8fa8:	eeb87b67 	vcvt.f64.u32	d7, s15
    8fac:	ed9f5bb1 	vldr	d5, [pc, #708]	; 9278 <notmain+0x37c>
    8fb0:	ee876b05 	vdiv.f64	d6, d7, d5
    8fb4:	ed9f7bb1 	vldr	d7, [pc, #708]	; 9280 <notmain+0x384>
    8fb8:	ee267b07 	vmul.f64	d7, d6, d7
    8fbc:	eebc7bc7 	vcvt.u32.f64	s14, d7
    8fc0:	e59f32c0 	ldr	r3, [pc, #704]	; 9288 <notmain+0x38c>
    8fc4:	e0833101 	add	r3, r3, r1, lsl #2
    8fc8:	ed837a11 	vstr	s14, [r3, #68]	; 0x44
    8fcc:	e3a01000 	mov	r1, #0, 0
    8fd0:	e5831004 	str	r1, [r3, #4]
    8fd4:	e1a01002 	mov	r1, r2
    8fd8:	e351000f 	cmp	r1, #15, 0
    8fdc:	9affffec 	bls	8f94 <notmain+0x98>
    8fe0:	e3a04000 	mov	r4, #0, 0
    8fe4:	ea00008f 	b	9228 <notmain+0x32c>
    8fe8:	e3a01000 	mov	r1, #0, 0
    8fec:	ea000000 	b	8ff4 <notmain+0xf8>
    8ff0:	e2811001 	add	r1, r1, #1, 0
    8ff4:	e3510001 	cmp	r1, #1, 0
    8ff8:	8a00000c 	bhi	9030 <notmain+0x134>
    8ffc:	e3a03000 	mov	r3, #0, 0
    9000:	e3530007 	cmp	r3, #7, 0
    9004:	8afffff9 	bhi	8ff0 <notmain+0xf4>
    9008:	e28d2018 	add	r2, sp, #24, 0
    900c:	e0822001 	add	r2, r2, r1
    9010:	e5522014 	ldrb	r2, [r2, #-20]	; 0xffffffec
    9014:	e1a02352 	asr	r2, r2, r3
    9018:	e0830181 	add	r0, r3, r1, lsl #3
    901c:	e2022001 	and	r2, r2, #1, 0
    9020:	e28dc008 	add	ip, sp, #8, 0
    9024:	e7cc2000 	strb	r2, [ip, r0]
    9028:	e2833001 	add	r3, r3, #1, 0
    902c:	eafffff3 	b	9000 <notmain+0x104>
    9030:	e3a06000 	mov	r6, #0, 0
    9034:	ea000029 	b	90e0 <notmain+0x1e4>
    9038:	e59f2248 	ldr	r2, [pc, #584]	; 9288 <notmain+0x38c>
    903c:	e0822103 	add	r2, r2, r3, lsl #2
    9040:	e592e044 	ldr	lr, [r2, #68]	; 0x44
    9044:	e592c004 	ldr	ip, [r2, #4]
    9048:	e08cc00e 	add	ip, ip, lr
    904c:	e582c004 	str	ip, [r2, #4]
    9050:	e2833001 	add	r3, r3, #1, 0
    9054:	e353000f 	cmp	r3, #15, 0
    9058:	8a000010 	bhi	90a0 <notmain+0x1a4>
    905c:	e28d2018 	add	r2, sp, #24, 0
    9060:	e0822003 	add	r2, r2, r3
    9064:	e5522010 	ldrb	r2, [r2, #-16]
    9068:	e3520000 	cmp	r2, #0, 0
    906c:	0afffff1 	beq	9038 <notmain+0x13c>
    9070:	e59f2210 	ldr	r2, [pc, #528]	; 9288 <notmain+0x38c>
    9074:	e0822103 	add	r2, r2, r3, lsl #2
    9078:	e5922004 	ldr	r2, [r2, #4]
    907c:	e1a02b22 	lsr	r2, r2, #22
    9080:	e59fc204 	ldr	ip, [pc, #516]	; 928c <notmain+0x390>
    9084:	e1a02182 	lsl	r2, r2, #3
    9088:	e79ce002 	ldr	lr, [ip, r2]
    908c:	e08c2002 	add	r2, ip, r2
    9090:	e5922004 	ldr	r2, [r2, #4]
    9094:	e090000e 	adds	r0, r0, lr
    9098:	e0a11002 	adc	r1, r1, r2
    909c:	eaffffe5 	b	9038 <notmain+0x13c>
    90a0:	e1a01d01 	lsl	r1, r1, #26
    90a4:	e1811320 	orr	r1, r1, r0, lsr #6
    90a8:	e1a00d00 	lsl	r0, r0, #26
    90ac:	e1a00fa0 	lsr	r0, r0, #31
    90b0:	e1800081 	orr	r0, r0, r1, lsl #1
    90b4:	e1a01fc1 	asr	r1, r1, #31
    90b8:	e1a02000 	mov	r2, r0
    90bc:	e1a03001 	mov	r3, r1
    90c0:	eb00021c 	bl	9938 <i2s_put_frame>
    90c4:	e2855001 	add	r5, r5, #1, 0
    90c8:	e3550093 	cmp	r5, #147, 0	; 0x93
    90cc:	93a03000 	movls	r3, #0, 0
    90d0:	91a00003 	movls	r0, r3
    90d4:	91a01003 	movls	r1, r3
    90d8:	9affffdd 	bls	9054 <notmain+0x158>
    90dc:	e2866001 	add	r6, r6, #1, 0
    90e0:	e3560009 	cmp	r6, #9, 0
    90e4:	d3a05000 	movle	r5, #0, 0
    90e8:	dafffff6 	ble	90c8 <notmain+0x1cc>
    90ec:	e3a03000 	mov	r3, #0, 0
    90f0:	e3530001 	cmp	r3, #1, 0
    90f4:	8a000005 	bhi	9110 <notmain+0x214>
    90f8:	e28d2018 	add	r2, sp, #24, 0
    90fc:	e0822003 	add	r2, r2, r3
    9100:	e3a0100f 	mov	r1, #15, 0
    9104:	e5421014 	strb	r1, [r2, #-20]	; 0xffffffec
    9108:	e2833001 	add	r3, r3, #1, 0
    910c:	eafffff7 	b	90f0 <notmain+0x1f4>
    9110:	e3a01000 	mov	r1, #0, 0
    9114:	ea000000 	b	911c <notmain+0x220>
    9118:	e2811001 	add	r1, r1, #1, 0
    911c:	e3510001 	cmp	r1, #1, 0
    9120:	8a00000c 	bhi	9158 <notmain+0x25c>
    9124:	e3a03000 	mov	r3, #0, 0
    9128:	e3530007 	cmp	r3, #7, 0
    912c:	8afffff9 	bhi	9118 <notmain+0x21c>
    9130:	e28d2018 	add	r2, sp, #24, 0
    9134:	e0822001 	add	r2, r2, r1
    9138:	e5522014 	ldrb	r2, [r2, #-20]	; 0xffffffec
    913c:	e1a02352 	asr	r2, r2, r3
    9140:	e0830181 	add	r0, r3, r1, lsl #3
    9144:	e2022001 	and	r2, r2, #1, 0
    9148:	e28dc008 	add	ip, sp, #8, 0
    914c:	e7cc2000 	strb	r2, [ip, r0]
    9150:	e2833001 	add	r3, r3, #1, 0
    9154:	eafffff3 	b	9128 <notmain+0x22c>
    9158:	e3a05000 	mov	r5, #0, 0
    915c:	ea000023 	b	91f0 <notmain+0x2f4>
    9160:	e59f2120 	ldr	r2, [pc, #288]	; 9288 <notmain+0x38c>
    9164:	e0822103 	add	r2, r2, r3, lsl #2
    9168:	e5922004 	ldr	r2, [r2, #4]
    916c:	e1a02b22 	lsr	r2, r2, #22
    9170:	e59fc114 	ldr	ip, [pc, #276]	; 928c <notmain+0x390>
    9174:	e1a02182 	lsl	r2, r2, #3
    9178:	e79ce002 	ldr	lr, [ip, r2]
    917c:	e08c2002 	add	r2, ip, r2
    9180:	e5922004 	ldr	r2, [r2, #4]
    9184:	e090000e 	adds	r0, r0, lr
    9188:	e0a11002 	adc	r1, r1, r2
    918c:	e59f20f4 	ldr	r2, [pc, #244]	; 9288 <notmain+0x38c>
    9190:	e0822103 	add	r2, r2, r3, lsl #2
    9194:	e592e044 	ldr	lr, [r2, #68]	; 0x44
    9198:	e592c004 	ldr	ip, [r2, #4]
    919c:	e08cc00e 	add	ip, ip, lr
    91a0:	e582c004 	str	ip, [r2, #4]
    91a4:	e2833001 	add	r3, r3, #1, 0
    91a8:	e353000f 	cmp	r3, #15, 0
    91ac:	8a000005 	bhi	91c8 <notmain+0x2cc>
    91b0:	e28d2018 	add	r2, sp, #24, 0
    91b4:	e0822003 	add	r2, r2, r3
    91b8:	e5522010 	ldrb	r2, [r2, #-16]
    91bc:	e3520000 	cmp	r2, #0, 0
    91c0:	0afffff1 	beq	918c <notmain+0x290>
    91c4:	eaffffe5 	b	9160 <notmain+0x264>
    91c8:	e1a01d01 	lsl	r1, r1, #26
    91cc:	e1811320 	orr	r1, r1, r0, lsr #6
    91d0:	e1a00d00 	lsl	r0, r0, #26
    91d4:	e1a00fa0 	lsr	r0, r0, #31
    91d8:	e1800081 	orr	r0, r0, r1, lsl #1
    91dc:	e1a01fc1 	asr	r1, r1, #31
    91e0:	e1a02000 	mov	r2, r0
    91e4:	e1a03001 	mov	r3, r1
    91e8:	eb0001d2 	bl	9938 <i2s_put_frame>
    91ec:	e2855001 	add	r5, r5, #1, 0
    91f0:	e3550093 	cmp	r5, #147, 0	; 0x93
    91f4:	93a03000 	movls	r3, #0, 0
    91f8:	91a00003 	movls	r0, r3
    91fc:	91a01003 	movls	r1, r3
    9200:	9affffe8 	bls	91a8 <notmain+0x2ac>
    9204:	e59f5084 	ldr	r5, [pc, #132]	; 9290 <notmain+0x394>
    9208:	e1a00005 	mov	r0, r5
    920c:	eb0009fc 	bl	ba04 <strlen>
    9210:	e1a01000 	mov	r1, r0
    9214:	e1a00005 	mov	r0, r5
    9218:	ebfffd6e 	bl	87d8 <send_data>
    921c:	e3a00ffa 	mov	r0, #1000	; 0x3e8
    9220:	eb000a41 	bl	bb2c <delay_ms>
    9224:	e2844001 	add	r4, r4, #1, 0
    9228:	e3540e7d 	cmp	r4, #2000	; 0x7d0
    922c:	2a000009 	bcs	9258 <notmain+0x35c>
    9230:	ebfffba7 	bl	80d4 <play_random_start>
    9234:	e3a03000 	mov	r3, #0, 0
    9238:	e3530001 	cmp	r3, #1, 0
    923c:	8affff69 	bhi	8fe8 <notmain+0xec>
    9240:	e28d2018 	add	r2, sp, #24, 0
    9244:	e0822003 	add	r2, r2, r3
    9248:	e3e01000 	mvn	r1, #0, 0
    924c:	e5421014 	strb	r1, [r2, #-20]	; 0xffffffec
    9250:	e2833001 	add	r3, r3, #1, 0
    9254:	eafffff7 	b	9238 <notmain+0x33c>
    9258:	e28dd018 	add	sp, sp, #24, 0
    925c:	e8bd8070 	pop	{r4, r5, r6, pc}
    9260:	54442d18 	.word	0x54442d18
    9264:	401921fb 	.word	0x401921fb
    9268:	00000000 	.word	0x00000000
    926c:	3f500000 	.word	0x3f500000
    9270:	ffc00000 	.word	0xffc00000
    9274:	41dfffff 	.word	0x41dfffff
    9278:	00000000 	.word	0x00000000
    927c:	40ef4000 	.word	0x40ef4000
    9280:	00000000 	.word	0x00000000
    9284:	41f00000 	.word	0x41f00000
    9288:	0000d668 	.word	0x0000d668
    928c:	0000d6f0 	.word	0x0000d6f0
    9290:	0000cbc0 	.word	0x0000cbc0

00009294 <clk_check_offsets>:
    9294:	e52de004 	push	{lr}		; (str lr, [sp, #-4]!)
    9298:	e24dd024 	sub	sp, sp, #36, 0	; 0x24
    929c:	e3a03000 	mov	r3, #0, 0
    92a0:	e1cd31b8 	strh	r3, [sp, #24]
    92a4:	e5cd301a 	strb	r3, [sp, #26]
    92a8:	e59d3018 	ldr	r3, [sp, #24]
    92ac:	e3c334ff 	bic	r3, r3, #-16777216	; 0xff000000
    92b0:	e3832401 	orr	r2, r3, #16777216	; 0x1000000
    92b4:	e3530000 	cmp	r3, #0, 0
    92b8:	1a000015 	bne	9314 <clk_check_offsets+0x80>
    92bc:	e38234ff 	orr	r3, r2, #-16777216	; 0xff000000
    92c0:	e3d224ff 	bics	r2, r2, #-16777216	; 0xff000000
    92c4:	1a000021 	bne	9350 <clk_check_offsets+0xbc>
    92c8:	e59f31a0 	ldr	r3, [pc, #416]	; 9470 <clk_check_offsets+0x1dc>
    92cc:	e1530003 	cmp	r3, r3
    92d0:	1a00002d 	bne	938c <clk_check_offsets+0xf8>
    92d4:	e59f3198 	ldr	r3, [pc, #408]	; 9474 <clk_check_offsets+0x1e0>
    92d8:	e1530003 	cmp	r3, r3
    92dc:	1a000038 	bne	93c4 <clk_check_offsets+0x130>
    92e0:	e3a03000 	mov	r3, #0, 0
    92e4:	e1cd31b8 	strh	r3, [sp, #24]
    92e8:	e5cd301a 	strb	r3, [sp, #26]
    92ec:	e59d3018 	ldr	r3, [sp, #24]
    92f0:	e3c334ff 	bic	r3, r3, #-16777216	; 0xff000000
    92f4:	e3832401 	orr	r2, r3, #16777216	; 0x1000000
    92f8:	e3530000 	cmp	r3, #0, 0
    92fc:	1a00003d 	bne	93f8 <clk_check_offsets+0x164>
    9300:	e38234ff 	orr	r3, r2, #-16777216	; 0xff000000
    9304:	e3d224ff 	bics	r2, r2, #-16777216	; 0xff000000
    9308:	1a000049 	bne	9434 <clk_check_offsets+0x1a0>
    930c:	e28dd024 	add	sp, sp, #36, 0	; 0x24
    9310:	e49df004 	pop	{pc}		; (ldr pc, [sp], #4)
    9314:	e3a03008 	mov	r3, #8, 0
    9318:	e58d3010 	str	r3, [sp, #16]
    931c:	e3a03018 	mov	r3, #24, 0
    9320:	e58d300c 	str	r3, [sp, #12]
    9324:	e59f314c 	ldr	r3, [pc, #332]	; 9478 <clk_check_offsets+0x1e4>
    9328:	e58d3008 	str	r3, [sp, #8]
    932c:	e58d2004 	str	r2, [sp, #4]
    9330:	e3a03401 	mov	r3, #16777216	; 0x1000000
    9334:	e58d3000 	str	r3, [sp]
    9338:	e3a0305b 	mov	r3, #91, 0	; 0x5b
    933c:	e59f2138 	ldr	r2, [pc, #312]	; 947c <clk_check_offsets+0x1e8>
    9340:	e59f1138 	ldr	r1, [pc, #312]	; 9480 <clk_check_offsets+0x1ec>
    9344:	e59f0138 	ldr	r0, [pc, #312]	; 9484 <clk_check_offsets+0x1f0>
    9348:	eb000726 	bl	afe8 <printk>
    934c:	eb0009b3 	bl	ba20 <clean_reboot>
    9350:	e3a02008 	mov	r2, #8, 0
    9354:	e58d2010 	str	r2, [sp, #16]
    9358:	e3a02018 	mov	r2, #24, 0
    935c:	e58d200c 	str	r2, [sp, #12]
    9360:	e59f2110 	ldr	r2, [pc, #272]	; 9478 <clk_check_offsets+0x1e4>
    9364:	e58d2008 	str	r2, [sp, #8]
    9368:	e58d3004 	str	r3, [sp, #4]
    936c:	e3a034ff 	mov	r3, #-16777216	; 0xff000000
    9370:	e58d3000 	str	r3, [sp]
    9374:	e3a0305b 	mov	r3, #91, 0	; 0x5b
    9378:	e59f20fc 	ldr	r2, [pc, #252]	; 947c <clk_check_offsets+0x1e8>
    937c:	e59f10fc 	ldr	r1, [pc, #252]	; 9480 <clk_check_offsets+0x1ec>
    9380:	e59f0100 	ldr	r0, [pc, #256]	; 9488 <clk_check_offsets+0x1f4>
    9384:	eb000717 	bl	afe8 <printk>
    9388:	eb0009a4 	bl	ba20 <clean_reboot>
    938c:	e3a0200c 	mov	r2, #12, 0
    9390:	e58d2010 	str	r2, [sp, #16]
    9394:	e3a02000 	mov	r2, #0, 0
    9398:	e58d200c 	str	r2, [sp, #12]
    939c:	e59f20e8 	ldr	r2, [pc, #232]	; 948c <clk_check_offsets+0x1f8>
    93a0:	e58d2008 	str	r2, [sp, #8]
    93a4:	e58d3004 	str	r3, [sp, #4]
    93a8:	e58d3000 	str	r3, [sp]
    93ac:	e3a0305d 	mov	r3, #93, 0	; 0x5d
    93b0:	e59f20c4 	ldr	r2, [pc, #196]	; 947c <clk_check_offsets+0x1e8>
    93b4:	e59f10c4 	ldr	r1, [pc, #196]	; 9480 <clk_check_offsets+0x1ec>
    93b8:	e59f00c8 	ldr	r0, [pc, #200]	; 9488 <clk_check_offsets+0x1f4>
    93bc:	eb000709 	bl	afe8 <printk>
    93c0:	eb000996 	bl	ba20 <clean_reboot>
    93c4:	e3a0200c 	mov	r2, #12, 0
    93c8:	e58d2010 	str	r2, [sp, #16]
    93cc:	e58d200c 	str	r2, [sp, #12]
    93d0:	e59f20b8 	ldr	r2, [pc, #184]	; 9490 <clk_check_offsets+0x1fc>
    93d4:	e58d2008 	str	r2, [sp, #8]
    93d8:	e58d3004 	str	r3, [sp, #4]
    93dc:	e58d3000 	str	r3, [sp]
    93e0:	e3a0305e 	mov	r3, #94, 0	; 0x5e
    93e4:	e59f2090 	ldr	r2, [pc, #144]	; 947c <clk_check_offsets+0x1e8>
    93e8:	e59f1090 	ldr	r1, [pc, #144]	; 9480 <clk_check_offsets+0x1ec>
    93ec:	e59f0094 	ldr	r0, [pc, #148]	; 9488 <clk_check_offsets+0x1f4>
    93f0:	eb0006fc 	bl	afe8 <printk>
    93f4:	eb000989 	bl	ba20 <clean_reboot>
    93f8:	e3a03008 	mov	r3, #8, 0
    93fc:	e58d3010 	str	r3, [sp, #16]
    9400:	e3a03018 	mov	r3, #24, 0
    9404:	e58d300c 	str	r3, [sp, #12]
    9408:	e59f3068 	ldr	r3, [pc, #104]	; 9478 <clk_check_offsets+0x1e4>
    940c:	e58d3008 	str	r3, [sp, #8]
    9410:	e58d2004 	str	r2, [sp, #4]
    9414:	e3a03401 	mov	r3, #16777216	; 0x1000000
    9418:	e58d3000 	str	r3, [sp]
    941c:	e3a0305f 	mov	r3, #95, 0	; 0x5f
    9420:	e59f2054 	ldr	r2, [pc, #84]	; 947c <clk_check_offsets+0x1e8>
    9424:	e59f1054 	ldr	r1, [pc, #84]	; 9480 <clk_check_offsets+0x1ec>
    9428:	e59f0054 	ldr	r0, [pc, #84]	; 9484 <clk_check_offsets+0x1f0>
    942c:	eb0006ed 	bl	afe8 <printk>
    9430:	eb00097a 	bl	ba20 <clean_reboot>
    9434:	e3a02008 	mov	r2, #8, 0
    9438:	e58d2010 	str	r2, [sp, #16]
    943c:	e3a02018 	mov	r2, #24, 0
    9440:	e58d200c 	str	r2, [sp, #12]
    9444:	e59f202c 	ldr	r2, [pc, #44]	; 9478 <clk_check_offsets+0x1e4>
    9448:	e58d2008 	str	r2, [sp, #8]
    944c:	e58d3004 	str	r3, [sp, #4]
    9450:	e3a034ff 	mov	r3, #-16777216	; 0xff000000
    9454:	e58d3000 	str	r3, [sp]
    9458:	e3a0305f 	mov	r3, #95, 0	; 0x5f
    945c:	e59f2018 	ldr	r2, [pc, #24]	; 947c <clk_check_offsets+0x1e8>
    9460:	e59f1018 	ldr	r1, [pc, #24]	; 9480 <clk_check_offsets+0x1ec>
    9464:	e59f001c 	ldr	r0, [pc, #28]	; 9488 <clk_check_offsets+0x1f4>
    9468:	eb0006de 	bl	afe8 <printk>
    946c:	eb00096b 	bl	ba20 <clean_reboot>
    9470:	00000fff 	.word	0x00000fff
    9474:	00fff000 	.word	0x00fff000
    9478:	0000d130 	.word	0x0000d130
    947c:	0000d1c0 	.word	0x0000d1c0
    9480:	0000cff8 	.word	0x0000cff8
    9484:	0000d040 	.word	0x0000d040
    9488:	0000d08c 	.word	0x0000d08c
    948c:	0000d148 	.word	0x0000d148
    9490:	0000d160 	.word	0x0000d160

00009494 <gpio_set_value>:
    9494:	e92d4070 	push	{r4, r5, r6, lr}
    9498:	e1a06001 	mov	r6, r1
    949c:	e59f3040 	ldr	r3, [pc, #64]	; 94e4 <gpio_set_value+0x50>
    94a0:	e0832093 	umull	r2, r3, r3, r0
    94a4:	e1a031a3 	lsr	r3, r3, #3
    94a8:	e0835103 	add	r5, r3, r3, lsl #2
    94ac:	e0405085 	sub	r5, r0, r5, lsl #1
    94b0:	e0855085 	add	r5, r5, r5, lsl #1
    94b4:	e2830302 	add	r0, r3, #134217728	; 0x8000000
    94b8:	e2800702 	add	r0, r0, #524288	; 0x80000
    94bc:	e1a04100 	lsl	r4, r0, #2
    94c0:	e1a00004 	mov	r0, r4
    94c4:	ebfffade 	bl	8044 <GET32>
    94c8:	e3a01007 	mov	r1, #7, 0
    94cc:	e1c00511 	bic	r0, r0, r1, lsl r5
    94d0:	e0061001 	and	r1, r6, r1
    94d4:	e1801511 	orr	r1, r0, r1, lsl r5
    94d8:	e1a00004 	mov	r0, r4
    94dc:	ebfffad6 	bl	803c <PUT32>
    94e0:	e8bd8070 	pop	{r4, r5, r6, pc}
    94e4:	cccccccd 	.word	0xcccccccd

000094e8 <pcm_check_initial>:
    94e8:	e92d4010 	push	{r4, lr}
    94ec:	eb000964 	bl	ba84 <dev_barrier>
    94f0:	e59f31cc 	ldr	r3, [pc, #460]	; 96c4 <pcm_check_initial+0x1dc>
    94f4:	e5933000 	ldr	r3, [r3]
    94f8:	e3130602 	tst	r3, #2097152	; 0x200000
    94fc:	0a000034 	beq	95d4 <pcm_check_initial+0xec>
    9500:	e59f31bc 	ldr	r3, [pc, #444]	; 96c4 <pcm_check_initial+0x1dc>
    9504:	e5933000 	ldr	r3, [r3]
    9508:	e3130702 	tst	r3, #524288	; 0x80000
    950c:	0a000036 	beq	95ec <pcm_check_initial+0x104>
    9510:	e59f31ac 	ldr	r3, [pc, #428]	; 96c4 <pcm_check_initial+0x1dc>
    9514:	e5933000 	ldr	r3, [r3]
    9518:	e3130802 	tst	r3, #131072	; 0x20000
    951c:	0a000038 	beq	9604 <pcm_check_initial+0x11c>
    9520:	e59f319c 	ldr	r3, [pc, #412]	; 96c4 <pcm_check_initial+0x1dc>
    9524:	e5933014 	ldr	r3, [r3, #20]
    9528:	e1a03c23 	lsr	r3, r3, #24
    952c:	e203307f 	and	r3, r3, #127, 0	; 0x7f
    9530:	e3530010 	cmp	r3, #16, 0
    9534:	1a000038 	bne	961c <pcm_check_initial+0x134>
    9538:	e59f3184 	ldr	r3, [pc, #388]	; 96c4 <pcm_check_initial+0x1dc>
    953c:	e5933014 	ldr	r3, [r3, #20]
    9540:	e1a03823 	lsr	r3, r3, #16
    9544:	e203307f 	and	r3, r3, #127, 0	; 0x7f
    9548:	e3530030 	cmp	r3, #48, 0	; 0x30
    954c:	1a000038 	bne	9634 <pcm_check_initial+0x14c>
    9550:	e59f316c 	ldr	r3, [pc, #364]	; 96c4 <pcm_check_initial+0x1dc>
    9554:	e5933014 	ldr	r3, [r3, #20]
    9558:	e1a03423 	lsr	r3, r3, #8
    955c:	e203307f 	and	r3, r3, #127, 0	; 0x7f
    9560:	e3530030 	cmp	r3, #48, 0	; 0x30
    9564:	1a000038 	bne	964c <pcm_check_initial+0x164>
    9568:	e59f3154 	ldr	r3, [pc, #340]	; 96c4 <pcm_check_initial+0x1dc>
    956c:	e5933014 	ldr	r3, [r3, #20]
    9570:	e203307f 	and	r3, r3, #127, 0	; 0x7f
    9574:	e3530020 	cmp	r3, #32, 0
    9578:	1a000039 	bne	9664 <pcm_check_initial+0x17c>
    957c:	e59f3140 	ldr	r3, [pc, #320]	; 96c4 <pcm_check_initial+0x1dc>
    9580:	e5933010 	ldr	r3, [r3, #16]
    9584:	e3530000 	cmp	r3, #0, 0
    9588:	1a00003b 	bne	967c <pcm_check_initial+0x194>
    958c:	e59f3130 	ldr	r3, [pc, #304]	; 96c4 <pcm_check_initial+0x1dc>
    9590:	e5933018 	ldr	r3, [r3, #24]
    9594:	e3530000 	cmp	r3, #0, 0
    9598:	1a00003d 	bne	9694 <pcm_check_initial+0x1ac>
    959c:	e59f3120 	ldr	r3, [pc, #288]	; 96c4 <pcm_check_initial+0x1dc>
    95a0:	e593301c 	ldr	r3, [r3, #28]
    95a4:	e3530000 	cmp	r3, #0, 0
    95a8:	1a00003f 	bne	96ac <pcm_check_initial+0x1c4>
    95ac:	e59f3110 	ldr	r3, [pc, #272]	; 96c4 <pcm_check_initial+0x1dc>
    95b0:	e5933020 	ldr	r3, [r3, #32]
    95b4:	e3530000 	cmp	r3, #0, 0
    95b8:	08bd8010 	popeq	{r4, pc}
    95bc:	e3a03056 	mov	r3, #86, 0	; 0x56
    95c0:	e59f2100 	ldr	r2, [pc, #256]	; 96c8 <pcm_check_initial+0x1e0>
    95c4:	e59f1100 	ldr	r1, [pc, #256]	; 96cc <pcm_check_initial+0x1e4>
    95c8:	e59f0100 	ldr	r0, [pc, #256]	; 96d0 <pcm_check_initial+0x1e8>
    95cc:	eb000685 	bl	afe8 <printk>
    95d0:	eb000912 	bl	ba20 <clean_reboot>
    95d4:	e3a0303b 	mov	r3, #59, 0	; 0x3b
    95d8:	e59f20e8 	ldr	r2, [pc, #232]	; 96c8 <pcm_check_initial+0x1e0>
    95dc:	e59f10e8 	ldr	r1, [pc, #232]	; 96cc <pcm_check_initial+0x1e4>
    95e0:	e59f00e8 	ldr	r0, [pc, #232]	; 96d0 <pcm_check_initial+0x1e8>
    95e4:	eb00067f 	bl	afe8 <printk>
    95e8:	eb00090c 	bl	ba20 <clean_reboot>
    95ec:	e3a0303d 	mov	r3, #61, 0	; 0x3d
    95f0:	e59f20d0 	ldr	r2, [pc, #208]	; 96c8 <pcm_check_initial+0x1e0>
    95f4:	e59f10d0 	ldr	r1, [pc, #208]	; 96cc <pcm_check_initial+0x1e4>
    95f8:	e59f00d0 	ldr	r0, [pc, #208]	; 96d0 <pcm_check_initial+0x1e8>
    95fc:	eb000679 	bl	afe8 <printk>
    9600:	eb000906 	bl	ba20 <clean_reboot>
    9604:	e3a0303f 	mov	r3, #63, 0	; 0x3f
    9608:	e59f20b8 	ldr	r2, [pc, #184]	; 96c8 <pcm_check_initial+0x1e0>
    960c:	e59f10b8 	ldr	r1, [pc, #184]	; 96cc <pcm_check_initial+0x1e4>
    9610:	e59f00b8 	ldr	r0, [pc, #184]	; 96d0 <pcm_check_initial+0x1e8>
    9614:	eb000673 	bl	afe8 <printk>
    9618:	eb000900 	bl	ba20 <clean_reboot>
    961c:	e3a03043 	mov	r3, #67, 0	; 0x43
    9620:	e59f20a0 	ldr	r2, [pc, #160]	; 96c8 <pcm_check_initial+0x1e0>
    9624:	e59f10a0 	ldr	r1, [pc, #160]	; 96cc <pcm_check_initial+0x1e4>
    9628:	e59f00a0 	ldr	r0, [pc, #160]	; 96d0 <pcm_check_initial+0x1e8>
    962c:	eb00066d 	bl	afe8 <printk>
    9630:	eb0008fa 	bl	ba20 <clean_reboot>
    9634:	e3a03045 	mov	r3, #69, 0	; 0x45
    9638:	e59f2088 	ldr	r2, [pc, #136]	; 96c8 <pcm_check_initial+0x1e0>
    963c:	e59f1088 	ldr	r1, [pc, #136]	; 96cc <pcm_check_initial+0x1e4>
    9640:	e59f0088 	ldr	r0, [pc, #136]	; 96d0 <pcm_check_initial+0x1e8>
    9644:	eb000667 	bl	afe8 <printk>
    9648:	eb0008f4 	bl	ba20 <clean_reboot>
    964c:	e3a03047 	mov	r3, #71, 0	; 0x47
    9650:	e59f2070 	ldr	r2, [pc, #112]	; 96c8 <pcm_check_initial+0x1e0>
    9654:	e59f1070 	ldr	r1, [pc, #112]	; 96cc <pcm_check_initial+0x1e4>
    9658:	e59f0070 	ldr	r0, [pc, #112]	; 96d0 <pcm_check_initial+0x1e8>
    965c:	eb000661 	bl	afe8 <printk>
    9660:	eb0008ee 	bl	ba20 <clean_reboot>
    9664:	e3a03049 	mov	r3, #73, 0	; 0x49
    9668:	e59f2058 	ldr	r2, [pc, #88]	; 96c8 <pcm_check_initial+0x1e0>
    966c:	e59f1058 	ldr	r1, [pc, #88]	; 96cc <pcm_check_initial+0x1e4>
    9670:	e59f0058 	ldr	r0, [pc, #88]	; 96d0 <pcm_check_initial+0x1e8>
    9674:	eb00065b 	bl	afe8 <printk>
    9678:	eb0008e8 	bl	ba20 <clean_reboot>
    967c:	e3a0304d 	mov	r3, #77, 0	; 0x4d
    9680:	e59f2040 	ldr	r2, [pc, #64]	; 96c8 <pcm_check_initial+0x1e0>
    9684:	e59f1040 	ldr	r1, [pc, #64]	; 96cc <pcm_check_initial+0x1e4>
    9688:	e59f0040 	ldr	r0, [pc, #64]	; 96d0 <pcm_check_initial+0x1e8>
    968c:	eb000655 	bl	afe8 <printk>
    9690:	eb0008e2 	bl	ba20 <clean_reboot>
    9694:	e3a03051 	mov	r3, #81, 0	; 0x51
    9698:	e59f2028 	ldr	r2, [pc, #40]	; 96c8 <pcm_check_initial+0x1e0>
    969c:	e59f1028 	ldr	r1, [pc, #40]	; 96cc <pcm_check_initial+0x1e4>
    96a0:	e59f0028 	ldr	r0, [pc, #40]	; 96d0 <pcm_check_initial+0x1e8>
    96a4:	eb00064f 	bl	afe8 <printk>
    96a8:	eb0008dc 	bl	ba20 <clean_reboot>
    96ac:	e3a03054 	mov	r3, #84, 0	; 0x54
    96b0:	e59f2010 	ldr	r2, [pc, #16]	; 96c8 <pcm_check_initial+0x1e0>
    96b4:	e59f1010 	ldr	r1, [pc, #16]	; 96cc <pcm_check_initial+0x1e4>
    96b8:	e59f0010 	ldr	r0, [pc, #16]	; 96d0 <pcm_check_initial+0x1e8>
    96bc:	eb000649 	bl	afe8 <printk>
    96c0:	eb0008d6 	bl	ba20 <clean_reboot>
    96c4:	20203000 	.word	0x20203000
    96c8:	0000d1d4 	.word	0x0000d1d4
    96cc:	0000d168 	.word	0x0000d168
    96d0:	0000d170 	.word	0x0000d170

000096d4 <clock_to_div>:
    96d4:	e59f2040 	ldr	r2, [pc, #64]	; 971c <clock_to_div+0x48>
    96d8:	e1510002 	cmp	r1, r2
    96dc:	1a000005 	bne	96f8 <clock_to_div+0x24>
    96e0:	e1a03000 	mov	r3, r0
    96e4:	e59f2034 	ldr	r2, [pc, #52]	; 9720 <clock_to_div+0x4c>
    96e8:	e8920007 	ldm	r2, {r0, r1, r2}
    96ec:	e8830007 	stm	r3, {r0, r1, r2}
    96f0:	e1a00003 	mov	r0, r3
    96f4:	e12fff1e 	bx	lr
    96f8:	e52de004 	push	{lr}		; (str lr, [sp, #-4]!)
    96fc:	e24dd00c 	sub	sp, sp, #12, 0
    9700:	e58d1000 	str	r1, [sp]
    9704:	e3a0300f 	mov	r3, #15, 0
    9708:	e59f2014 	ldr	r2, [pc, #20]	; 9724 <clock_to_div+0x50>
    970c:	e59f1014 	ldr	r1, [pc, #20]	; 9728 <clock_to_div+0x54>
    9710:	e59f0014 	ldr	r0, [pc, #20]	; 972c <clock_to_div+0x58>
    9714:	eb000633 	bl	afe8 <printk>
    9718:	eb0008c0 	bl	ba20 <clean_reboot>
    971c:	0000ac44 	.word	0x0000ac44
    9720:	0000d1e8 	.word	0x0000d1e8
    9724:	0000d1f4 	.word	0x0000d1f4
    9728:	0000d168 	.word	0x0000d168
    972c:	0000d194 	.word	0x0000d194

00009730 <pcm_clock_init>:
    9730:	e92d4010 	push	{r4, lr}
    9734:	e24dd008 	sub	sp, sp, #8, 0
    9738:	e1a04000 	mov	r4, r0
    973c:	eb0008d0 	bl	ba84 <dev_barrier>
    9740:	e1a01004 	mov	r1, r4
    9744:	e59f009c 	ldr	r0, [pc, #156]	; 97e8 <pcm_clock_init+0xb8>
    9748:	eb000a3f 	bl	c04c <__udivsi3>
    974c:	e1a04620 	lsr	r4, r0, #12
    9750:	e1a04a04 	lsl	r4, r4, #20
    9754:	e1a04a24 	lsr	r4, r4, #20
    9758:	e1a00a00 	lsl	r0, r0, #20
    975c:	e1a00a20 	lsr	r0, r0, #20
    9760:	e1800604 	orr	r0, r0, r4, lsl #12
    9764:	e380445a 	orr	r4, r0, #1509949440	; 0x5a000000
    9768:	e3a03000 	mov	r3, #0, 0
    976c:	e1cd30b0 	strh	r3, [sp]
    9770:	e5cd3002 	strb	r3, [sp, #2]
    9774:	e59d1000 	ldr	r1, [sp]
    9778:	e3c114ff 	bic	r1, r1, #-16777216	; 0xff000000
    977c:	e3c1100e 	bic	r1, r1, #14, 0
    9780:	e381145a 	orr	r1, r1, #1509949440	; 0x5a000000
    9784:	e3811001 	orr	r1, r1, #1, 0
    9788:	e59f005c 	ldr	r0, [pc, #92]	; 97ec <pcm_clock_init+0xbc>
    978c:	ebfffa2a 	bl	803c <PUT32>
    9790:	e59f3058 	ldr	r3, [pc, #88]	; 97f0 <pcm_clock_init+0xc0>
    9794:	e1d339d8 	ldrsb	r3, [r3, #152]	; 0x98
    9798:	e3530000 	cmp	r3, #0, 0
    979c:	bafffffb 	blt	9790 <pcm_clock_init+0x60>
    97a0:	e1a01004 	mov	r1, r4
    97a4:	e59f0048 	ldr	r0, [pc, #72]	; 97f4 <pcm_clock_init+0xc4>
    97a8:	ebfffa23 	bl	803c <PUT32>
    97ac:	e3a03000 	mov	r3, #0, 0
    97b0:	e1cd30b0 	strh	r3, [sp]
    97b4:	e5cd3002 	strb	r3, [sp, #2]
    97b8:	e59d1000 	ldr	r1, [sp]
    97bc:	e3c114ff 	bic	r1, r1, #-16777216	; 0xff000000
    97c0:	e3c1100e 	bic	r1, r1, #14, 0
    97c4:	e3811011 	orr	r1, r1, #17, 0
    97c8:	e3c11b01 	bic	r1, r1, #1024	; 0x400
    97cc:	e381145a 	orr	r1, r1, #1509949440	; 0x5a000000
    97d0:	e3811c02 	orr	r1, r1, #512	; 0x200
    97d4:	e59f0010 	ldr	r0, [pc, #16]	; 97ec <pcm_clock_init+0xbc>
    97d8:	ebfffa17 	bl	803c <PUT32>
    97dc:	eb0008a8 	bl	ba84 <dev_barrier>
    97e0:	e28dd008 	add	sp, sp, #8, 0
    97e4:	e8bd8010 	pop	{r4, pc}
    97e8:	493e0000 	.word	0x493e0000
    97ec:	20101098 	.word	0x20101098
    97f0:	20101000 	.word	0x20101000
    97f4:	2010109c 	.word	0x2010109c

000097f8 <i2s_init>:
    97f8:	e92d4010 	push	{r4, lr}
    97fc:	e1a04000 	mov	r4, r0
    9800:	ebfffea3 	bl	9294 <clk_check_offsets>
    9804:	eb00089e 	bl	ba84 <dev_barrier>
    9808:	e3a01004 	mov	r1, #4, 0
    980c:	e3a00012 	mov	r0, #18, 0
    9810:	ebffff1f 	bl	9494 <gpio_set_value>
    9814:	e3a01004 	mov	r1, #4, 0
    9818:	e3a00013 	mov	r0, #19, 0
    981c:	ebffff1c 	bl	9494 <gpio_set_value>
    9820:	e3a01004 	mov	r1, #4, 0
    9824:	e3a00014 	mov	r0, #20, 0
    9828:	ebffff19 	bl	9494 <gpio_set_value>
    982c:	e3a01004 	mov	r1, #4, 0
    9830:	e3a00015 	mov	r0, #21, 0
    9834:	ebffff16 	bl	9494 <gpio_set_value>
    9838:	ebffff2a 	bl	94e8 <pcm_check_initial>
    983c:	e1a00004 	mov	r0, r4
    9840:	ebffffba 	bl	9730 <pcm_clock_init>
    9844:	e59f4044 	ldr	r4, [pc, #68]	; 9890 <i2s_init+0x98>
    9848:	e3a03001 	mov	r3, #1, 0
    984c:	e5843000 	str	r3, [r4]
    9850:	eb00088b 	bl	ba84 <dev_barrier>
    9854:	e59f3038 	ldr	r3, [pc, #56]	; 9894 <i2s_init+0x9c>
    9858:	e5843008 	str	r3, [r4, #8]
    985c:	e59f3034 	ldr	r3, [pc, #52]	; 9898 <i2s_init+0xa0>
    9860:	e584300c 	str	r3, [r4, #12]
    9864:	e2833cc2 	add	r3, r3, #49664	; 0xc200
    9868:	e2833018 	add	r3, r3, #24, 0
    986c:	e5843010 	str	r3, [r4, #16]
    9870:	e59f3024 	ldr	r3, [pc, #36]	; 989c <i2s_init+0xa4>
    9874:	e5843000 	str	r3, [r4]
    9878:	e59f3010 	ldr	r3, [pc, #16]	; 9890 <i2s_init+0x98>
    987c:	e5933000 	ldr	r3, [r3]
    9880:	e3130401 	tst	r3, #16777216	; 0x1000000
    9884:	0afffffb 	beq	9878 <i2s_init+0x80>
    9888:	eb00087d 	bl	ba84 <dev_barrier>
    988c:	e8bd8010 	pop	{r4, pc}
    9890:	20203000 	.word	0x20203000
    9894:	0000fc20 	.word	0x0000fc20
    9898:	c0180000 	.word	0xc0180000
    989c:	01000019 	.word	0x01000019

000098a0 <i2s_get32>:
    98a0:	e59f3014 	ldr	r3, [pc, #20]	; 98bc <i2s_get32+0x1c>
    98a4:	e5933000 	ldr	r3, [r3]
    98a8:	e3130601 	tst	r3, #1048576	; 0x100000
    98ac:	0afffffb 	beq	98a0 <i2s_get32>
    98b0:	e59f3004 	ldr	r3, [pc, #4]	; 98bc <i2s_get32+0x1c>
    98b4:	e5930004 	ldr	r0, [r3, #4]
    98b8:	e12fff1e 	bx	lr
    98bc:	20203000 	.word	0x20203000

000098c0 <i2s_tx_enable>:
    98c0:	e92d4010 	push	{r4, lr}
    98c4:	e59f3028 	ldr	r3, [pc, #40]	; 98f4 <i2s_tx_enable+0x34>
    98c8:	e59f2028 	ldr	r2, [pc, #40]	; 98f8 <i2s_tx_enable+0x38>
    98cc:	e5832000 	str	r2, [r3]
    98d0:	e59f301c 	ldr	r3, [pc, #28]	; 98f4 <i2s_tx_enable+0x34>
    98d4:	e5933000 	ldr	r3, [r3]
    98d8:	e3130401 	tst	r3, #16777216	; 0x1000000
    98dc:	0afffffb 	beq	98d0 <i2s_tx_enable+0x10>
    98e0:	e59f300c 	ldr	r3, [pc, #12]	; 98f4 <i2s_tx_enable+0x34>
    98e4:	e3a02005 	mov	r2, #5, 0
    98e8:	e5832000 	str	r2, [r3]
    98ec:	eb000864 	bl	ba84 <dev_barrier>
    98f0:	e8bd8010 	pop	{r4, pc}
    98f4:	20203000 	.word	0x20203000
    98f8:	01000009 	.word	0x01000009

000098fc <i2s_rx_enable>:
    98fc:	e92d4010 	push	{r4, lr}
    9900:	e59f3028 	ldr	r3, [pc, #40]	; 9930 <i2s_rx_enable+0x34>
    9904:	e59f2028 	ldr	r2, [pc, #40]	; 9934 <i2s_rx_enable+0x38>
    9908:	e5832000 	str	r2, [r3]
    990c:	e59f301c 	ldr	r3, [pc, #28]	; 9930 <i2s_rx_enable+0x34>
    9910:	e5933000 	ldr	r3, [r3]
    9914:	e3130401 	tst	r3, #16777216	; 0x1000000
    9918:	0afffffb 	beq	990c <i2s_rx_enable+0x10>
    991c:	e59f300c 	ldr	r3, [pc, #12]	; 9930 <i2s_rx_enable+0x34>
    9920:	e3a02003 	mov	r2, #3, 0
    9924:	e5832000 	str	r2, [r3]
    9928:	eb000855 	bl	ba84 <dev_barrier>
    992c:	e8bd8010 	pop	{r4, pc}
    9930:	20203000 	.word	0x20203000
    9934:	01000011 	.word	0x01000011

00009938 <i2s_put_frame>:
    9938:	e59f302c 	ldr	r3, [pc, #44]	; 996c <i2s_put_frame+0x34>
    993c:	e5933000 	ldr	r3, [r3]
    9940:	e3130702 	tst	r3, #524288	; 0x80000
    9944:	0afffffb 	beq	9938 <i2s_put_frame>
    9948:	e59f301c 	ldr	r3, [pc, #28]	; 996c <i2s_put_frame+0x34>
    994c:	e5830004 	str	r0, [r3, #4]
    9950:	e59f3014 	ldr	r3, [pc, #20]	; 996c <i2s_put_frame+0x34>
    9954:	e5933000 	ldr	r3, [r3]
    9958:	e3130702 	tst	r3, #524288	; 0x80000
    995c:	0afffffb 	beq	9950 <i2s_put_frame+0x18>
    9960:	e59f3004 	ldr	r3, [pc, #4]	; 996c <i2s_put_frame+0x34>
    9964:	e5832004 	str	r2, [r3, #4]
    9968:	e12fff1e 	bx	lr
    996c:	20203000 	.word	0x20203000

00009970 <cpyjmp>:
    9970:	e92d4010 	push	{r4, lr}
    9974:	e3a03000 	mov	r3, #0, 0
    9978:	e1520003 	cmp	r2, r3
    997c:	87d1c003 	ldrbhi	ip, [r1, r3]
    9980:	87c0c003 	strbhi	ip, [r0, r3]
    9984:	82833001 	addhi	r3, r3, #1, 0
    9988:	8afffffa 	bhi	9978 <cpyjmp+0x8>
    998c:	e12fff30 	blx	r0
    9990:	ef000001 	svc	0x00000001
    9994:	e8bd8010 	pop	{r4, pc}

00009998 <cpyjmp_end>:
    9998:	e12fff1e 	bx	lr

0000999c <cpyjmp2>:
    999c:	e92d4010 	push	{r4, lr}
    99a0:	e3a03000 	mov	r3, #0, 0
    99a4:	e1520003 	cmp	r2, r3
    99a8:	87d1c003 	ldrbhi	ip, [r1, r3]
    99ac:	87c0c003 	strbhi	ip, [r0, r3]
    99b0:	82833001 	addhi	r3, r3, #1, 0
    99b4:	8afffffa 	bhi	99a4 <cpyjmp2+0x8>
    99b8:	e12fff30 	blx	r0
    99bc:	ef000001 	svc	0x00000001
    99c0:	e8bd8010 	pop	{r4, pc}

000099c4 <cpyjmp2_end>:
    99c4:	e12fff1e 	bx	lr

000099c8 <cpyjmp_check>:
    99c8:	e52de004 	push	{lr}		; (str lr, [sp, #-4]!)
    99cc:	e24dd00c 	sub	sp, sp, #12, 0
    99d0:	e59f00bc 	ldr	r0, [pc, #188]	; 9a94 <cpyjmp_check+0xcc>
    99d4:	e59f30bc 	ldr	r3, [pc, #188]	; 9a98 <cpyjmp_check+0xd0>
    99d8:	e0400003 	sub	r0, r0, r3
    99dc:	e59f30b8 	ldr	r3, [pc, #184]	; 9a9c <cpyjmp_check+0xd4>
    99e0:	e59f20b8 	ldr	r2, [pc, #184]	; 9aa0 <cpyjmp_check+0xd8>
    99e4:	e0433002 	sub	r3, r3, r2
    99e8:	e1530000 	cmp	r3, r0
    99ec:	1a00000e 	bne	9a2c <cpyjmp_check+0x64>
    99f0:	e59f20a8 	ldr	r2, [pc, #168]	; 9aa0 <cpyjmp_check+0xd8>
    99f4:	e59f309c 	ldr	r3, [pc, #156]	; 9a98 <cpyjmp_check+0xd0>
    99f8:	e1520003 	cmp	r2, r3
    99fc:	2a000012 	bcs	9a4c <cpyjmp_check+0x84>
    9a00:	e3a03000 	mov	r3, #0, 0
    9a04:	e1530140 	cmp	r3, r0, asr #2
    9a08:	aa00001f 	bge	9a8c <cpyjmp_check+0xc4>
    9a0c:	e59f208c 	ldr	r2, [pc, #140]	; 9aa0 <cpyjmp_check+0xd8>
    9a10:	e7921103 	ldr	r1, [r2, r3, lsl #2]
    9a14:	e59f207c 	ldr	r2, [pc, #124]	; 9a98 <cpyjmp_check+0xd0>
    9a18:	e7922103 	ldr	r2, [r2, r3, lsl #2]
    9a1c:	e1510002 	cmp	r1, r2
    9a20:	1a000011 	bne	9a6c <cpyjmp_check+0xa4>
    9a24:	e2833001 	add	r3, r3, #1, 0
    9a28:	eafffff5 	b	9a04 <cpyjmp_check+0x3c>
    9a2c:	e59f3070 	ldr	r3, [pc, #112]	; 9aa4 <cpyjmp_check+0xdc>
    9a30:	e58d3000 	str	r3, [sp]
    9a34:	e3a0303b 	mov	r3, #59, 0	; 0x3b
    9a38:	e59f2068 	ldr	r2, [pc, #104]	; 9aa8 <cpyjmp_check+0xe0>
    9a3c:	e59f1068 	ldr	r1, [pc, #104]	; 9aac <cpyjmp_check+0xe4>
    9a40:	e59f0068 	ldr	r0, [pc, #104]	; 9ab0 <cpyjmp_check+0xe8>
    9a44:	eb000567 	bl	afe8 <printk>
    9a48:	eb0007f4 	bl	ba20 <clean_reboot>
    9a4c:	e59f3060 	ldr	r3, [pc, #96]	; 9ab4 <cpyjmp_check+0xec>
    9a50:	e58d3000 	str	r3, [sp]
    9a54:	e3a0303c 	mov	r3, #60, 0	; 0x3c
    9a58:	e59f2048 	ldr	r2, [pc, #72]	; 9aa8 <cpyjmp_check+0xe0>
    9a5c:	e59f1048 	ldr	r1, [pc, #72]	; 9aac <cpyjmp_check+0xe4>
    9a60:	e59f0048 	ldr	r0, [pc, #72]	; 9ab0 <cpyjmp_check+0xe8>
    9a64:	eb00055f 	bl	afe8 <printk>
    9a68:	eb0007ec 	bl	ba20 <clean_reboot>
    9a6c:	e59f3044 	ldr	r3, [pc, #68]	; 9ab8 <cpyjmp_check+0xf0>
    9a70:	e58d3000 	str	r3, [sp]
    9a74:	e3a0303f 	mov	r3, #63, 0	; 0x3f
    9a78:	e59f2028 	ldr	r2, [pc, #40]	; 9aa8 <cpyjmp_check+0xe0>
    9a7c:	e59f1028 	ldr	r1, [pc, #40]	; 9aac <cpyjmp_check+0xe4>
    9a80:	e59f0028 	ldr	r0, [pc, #40]	; 9ab0 <cpyjmp_check+0xe8>
    9a84:	eb000557 	bl	afe8 <printk>
    9a88:	eb0007e4 	bl	ba20 <clean_reboot>
    9a8c:	e28dd00c 	add	sp, sp, #12, 0
    9a90:	e49df004 	pop	{pc}		; (ldr pc, [sp], #4)
    9a94:	000099c4 	.word	0x000099c4
    9a98:	0000999c 	.word	0x0000999c
    9a9c:	00009998 	.word	0x00009998
    9aa0:	00009970 	.word	0x00009970
    9aa4:	0000d210 	.word	0x0000d210
    9aa8:	0000d290 	.word	0x0000d290
    9aac:	0000d204 	.word	0x0000d204
    9ab0:	0000d000 	.word	0x0000d000
    9ab4:	0000d23c 	.word	0x0000d23c
    9ab8:	0000d250 	.word	0x0000d250

00009abc <cpyjmp_relocate>:
    9abc:	e92d4010 	push	{r4, lr}
    9ac0:	e24dd008 	sub	sp, sp, #8, 0
    9ac4:	e3500409 	cmp	r0, #150994944	; 0x9000000
    9ac8:	3a000003 	bcc	9adc <cpyjmp_relocate+0x20>
    9acc:	e1a04000 	mov	r4, r0
    9ad0:	ebffffbc 	bl	99c8 <cpyjmp_check>
    9ad4:	e3a03000 	mov	r3, #0, 0
    9ad8:	ea00000b 	b	9b0c <cpyjmp_relocate+0x50>
    9adc:	e59f3048 	ldr	r3, [pc, #72]	; 9b2c <cpyjmp_relocate+0x70>
    9ae0:	e58d3000 	str	r3, [sp]
    9ae4:	e3a03046 	mov	r3, #70, 0	; 0x46
    9ae8:	e59f2040 	ldr	r2, [pc, #64]	; 9b30 <cpyjmp_relocate+0x74>
    9aec:	e59f1040 	ldr	r1, [pc, #64]	; 9b34 <cpyjmp_relocate+0x78>
    9af0:	e59f0040 	ldr	r0, [pc, #64]	; 9b38 <cpyjmp_relocate+0x7c>
    9af4:	eb00053b 	bl	afe8 <printk>
    9af8:	eb0007c8 	bl	ba20 <clean_reboot>
    9afc:	e59f2038 	ldr	r2, [pc, #56]	; 9b3c <cpyjmp_relocate+0x80>
    9b00:	e7922103 	ldr	r2, [r2, r3, lsl #2]
    9b04:	e7842103 	str	r2, [r4, r3, lsl #2]
    9b08:	e2833001 	add	r3, r3, #1, 0
    9b0c:	e59f202c 	ldr	r2, [pc, #44]	; 9b40 <cpyjmp_relocate+0x84>
    9b10:	e59f1024 	ldr	r1, [pc, #36]	; 9b3c <cpyjmp_relocate+0x80>
    9b14:	e0422001 	sub	r2, r2, r1
    9b18:	e1530142 	cmp	r3, r2, asr #2
    9b1c:	bafffff6 	blt	9afc <cpyjmp_relocate+0x40>
    9b20:	e1a00004 	mov	r0, r4
    9b24:	e28dd008 	add	sp, sp, #8, 0
    9b28:	e8bd8010 	pop	{r4, pc}
    9b2c:	0000d26c 	.word	0x0000d26c
    9b30:	0000d2a0 	.word	0x0000d2a0
    9b34:	0000d204 	.word	0x0000d204
    9b38:	0000d000 	.word	0x0000d000
    9b3c:	00009970 	.word	0x00009970
    9b40:	00009998 	.word	0x00009998

00009b44 <sin>:
    9b44:	e52de004 	push	{lr}		; (str lr, [sp, #-4]!)
    9b48:	e24dd01c 	sub	sp, sp, #28, 0
    9b4c:	e3c13102 	bic	r3, r1, #-2147483648	; 0x80000000
    9b50:	e59f20d4 	ldr	r2, [pc, #212]	; 9c2c <sin+0xe8>
    9b54:	e1530002 	cmp	r3, r2
    9b58:	ca00000e 	bgt	9b98 <sin+0x54>
    9b5c:	e59f20cc 	ldr	r2, [pc, #204]	; 9c30 <sin+0xec>
    9b60:	e1530002 	cmp	r3, r2
    9b64:	ca000004 	bgt	9b7c <sin+0x38>
    9b68:	ec410b17 	vmov	d7, r0, r1
    9b6c:	eefd7bc7 	vcvt.s32.f64	s15, d7
    9b70:	ee173a90 	vmov	r3, s15
    9b74:	e3530000 	cmp	r3, #0, 0
    9b78:	0a000004 	beq	9b90 <sin+0x4c>
    9b7c:	e3a03000 	mov	r3, #0, 0
    9b80:	e58d3000 	str	r3, [sp]
    9b84:	e3a02000 	mov	r2, #0, 0
    9b88:	e3a03000 	mov	r3, #0, 0
    9b8c:	eb000057 	bl	9cf0 <__kernel_sin>
    9b90:	e28dd01c 	add	sp, sp, #28, 0
    9b94:	e49df004 	pop	{pc}		; (ldr pc, [sp], #4)
    9b98:	e59f2094 	ldr	r2, [pc, #148]	; 9c34 <sin+0xf0>
    9b9c:	e1530002 	cmp	r3, r2
    9ba0:	cc410b17 	vmovgt	d7, r0, r1
    9ba4:	ce377b47 	vsubgt.f64	d7, d7, d7
    9ba8:	cc510b17 	vmovgt	r0, r1, d7
    9bac:	cafffff7 	bgt	9b90 <sin+0x4c>
    9bb0:	e28d2008 	add	r2, sp, #8, 0
    9bb4:	eb00007b 	bl	9da8 <__ieee754_rem_pio2>
    9bb8:	e2000003 	and	r0, r0, #3, 0
    9bbc:	e3500001 	cmp	r0, #1, 0
    9bc0:	0a00000e 	beq	9c00 <sin+0xbc>
    9bc4:	e3500002 	cmp	r0, #2, 0
    9bc8:	0a000010 	beq	9c10 <sin+0xcc>
    9bcc:	e3500000 	cmp	r0, #0, 0
    9bd0:	0a000004 	beq	9be8 <sin+0xa4>
    9bd4:	e1cd21d0 	ldrd	r2, [sp, #16]
    9bd8:	e1cd00d8 	ldrd	r0, [sp, #8]
    9bdc:	eb000015 	bl	9c38 <__kernel_cos>
    9be0:	e2211102 	eor	r1, r1, #-2147483648	; 0x80000000
    9be4:	eaffffe9 	b	9b90 <sin+0x4c>
    9be8:	e3a03001 	mov	r3, #1, 0
    9bec:	e58d3000 	str	r3, [sp]
    9bf0:	e1cd21d0 	ldrd	r2, [sp, #16]
    9bf4:	e1cd00d8 	ldrd	r0, [sp, #8]
    9bf8:	eb00003c 	bl	9cf0 <__kernel_sin>
    9bfc:	eaffffe3 	b	9b90 <sin+0x4c>
    9c00:	e1cd21d0 	ldrd	r2, [sp, #16]
    9c04:	e1cd00d8 	ldrd	r0, [sp, #8]
    9c08:	eb00000a 	bl	9c38 <__kernel_cos>
    9c0c:	eaffffdf 	b	9b90 <sin+0x4c>
    9c10:	e3a03001 	mov	r3, #1, 0
    9c14:	e58d3000 	str	r3, [sp]
    9c18:	e1cd21d0 	ldrd	r2, [sp, #16]
    9c1c:	e1cd00d8 	ldrd	r0, [sp, #8]
    9c20:	eb000032 	bl	9cf0 <__kernel_sin>
    9c24:	e2211102 	eor	r1, r1, #-2147483648	; 0x80000000
    9c28:	eaffffd8 	b	9b90 <sin+0x4c>
    9c2c:	3fe921fb 	.word	0x3fe921fb
    9c30:	3e4fffff 	.word	0x3e4fffff
    9c34:	7fefffff 	.word	0x7fefffff

00009c38 <__kernel_cos>:
    9c38:	ec410b17 	vmov	d7, r0, r1
    9c3c:	ec432b12 	vmov	d2, r2, r3
    9c40:	ee274b07 	vmul.f64	d4, d7, d7
    9c44:	ee246b04 	vmul.f64	d6, d4, d4
    9c48:	ed9f3b18 	vldr	d3, [pc, #96]	; 9cb0 <__kernel_cos+0x78>
    9c4c:	ed9f5b19 	vldr	d5, [pc, #100]	; 9cb8 <__kernel_cos+0x80>
    9c50:	ee145b03 	vnmls.f64	d5, d4, d3
    9c54:	ed9f3b19 	vldr	d3, [pc, #100]	; 9cc0 <__kernel_cos+0x88>
    9c58:	ee053b04 	vmla.f64	d3, d5, d4
    9c5c:	ee266b06 	vmul.f64	d6, d6, d6
    9c60:	ed9f5b18 	vldr	d5, [pc, #96]	; 9cc8 <__kernel_cos+0x90>
    9c64:	ed9f1b19 	vldr	d1, [pc, #100]	; 9cd0 <__kernel_cos+0x98>
    9c68:	ee041b05 	vmla.f64	d1, d4, d5
    9c6c:	ed9f5b19 	vldr	d5, [pc, #100]	; 9cd8 <__kernel_cos+0xa0>
    9c70:	ee115b04 	vnmls.f64	d5, d1, d4
    9c74:	ee265b05 	vmul.f64	d5, d6, d5
    9c78:	ee035b04 	vmla.f64	d5, d3, d4
    9c7c:	ed9f1b17 	vldr	d1, [pc, #92]	; 9ce0 <__kernel_cos+0xa8>
    9c80:	ee241b01 	vmul.f64	d1, d4, d1
    9c84:	ed9f6b17 	vldr	d6, [pc, #92]	; 9ce8 <__kernel_cos+0xb0>
    9c88:	ee363b41 	vsub.f64	d3, d6, d1
    9c8c:	ee366b43 	vsub.f64	d6, d6, d3
    9c90:	ee366b41 	vsub.f64	d6, d6, d1
    9c94:	ee277b02 	vmul.f64	d7, d7, d2
    9c98:	ee147b05 	vnmls.f64	d7, d4, d5
    9c9c:	ee367b07 	vadd.f64	d7, d6, d7
    9ca0:	ee377b03 	vadd.f64	d7, d7, d3
    9ca4:	ec510b17 	vmov	r0, r1, d7
    9ca8:	e12fff1e 	bx	lr
    9cac:	e320f000 	nop	{0}
    9cb0:	19cb1590 	.word	0x19cb1590
    9cb4:	3efa01a0 	.word	0x3efa01a0
    9cb8:	16c15177 	.word	0x16c15177
    9cbc:	3f56c16c 	.word	0x3f56c16c
    9cc0:	5555554c 	.word	0x5555554c
    9cc4:	3fa55555 	.word	0x3fa55555
    9cc8:	be8838d4 	.word	0xbe8838d4
    9ccc:	bda8fae9 	.word	0xbda8fae9
    9cd0:	bdb4b1c4 	.word	0xbdb4b1c4
    9cd4:	3e21ee9e 	.word	0x3e21ee9e
    9cd8:	809c52ad 	.word	0x809c52ad
    9cdc:	3e927e4f 	.word	0x3e927e4f
    9ce0:	00000000 	.word	0x00000000
    9ce4:	3fe00000 	.word	0x3fe00000
    9ce8:	00000000 	.word	0x00000000
    9cec:	3ff00000 	.word	0x3ff00000

00009cf0 <__kernel_sin>:
    9cf0:	ec410b17 	vmov	d7, r0, r1
    9cf4:	ec432b14 	vmov	d4, r2, r3
    9cf8:	ee276b07 	vmul.f64	d6, d7, d7
    9cfc:	ee262b06 	vmul.f64	d2, d6, d6
    9d00:	ed9f5b1a 	vldr	d5, [pc, #104]	; 9d70 <__kernel_sin+0x80>
    9d04:	ed9f3b1b 	vldr	d3, [pc, #108]	; 9d78 <__kernel_sin+0x88>
    9d08:	ee163b05 	vnmls.f64	d3, d6, d5
    9d0c:	ed9f5b1b 	vldr	d5, [pc, #108]	; 9d80 <__kernel_sin+0x90>
    9d10:	ee035b06 	vmla.f64	d5, d3, d6
    9d14:	ee262b02 	vmul.f64	d2, d6, d2
    9d18:	ed9f1b1a 	vldr	d1, [pc, #104]	; 9d88 <__kernel_sin+0x98>
    9d1c:	ed9f3b1b 	vldr	d3, [pc, #108]	; 9d90 <__kernel_sin+0xa0>
    9d20:	ee163b01 	vnmls.f64	d3, d6, d1
    9d24:	ee025b03 	vmla.f64	d5, d2, d3
    9d28:	ee273b06 	vmul.f64	d3, d7, d6
    9d2c:	e59d3000 	ldr	r3, [sp]
    9d30:	e3530000 	cmp	r3, #0, 0
    9d34:	1a000004 	bne	9d4c <__kernel_sin+0x5c>
    9d38:	ed9f4b16 	vldr	d4, [pc, #88]	; 9d98 <__kernel_sin+0xa8>
    9d3c:	ee164b05 	vnmls.f64	d4, d6, d5
    9d40:	ee047b03 	vmla.f64	d7, d4, d3
    9d44:	ec510b17 	vmov	r0, r1, d7
    9d48:	e12fff1e 	bx	lr
    9d4c:	ee255b03 	vmul.f64	d5, d5, d3
    9d50:	ed9f2b12 	vldr	d2, [pc, #72]	; 9da0 <__kernel_sin+0xb0>
    9d54:	ee145b02 	vnmls.f64	d5, d4, d2
    9d58:	ee154b06 	vnmls.f64	d4, d5, d6
    9d5c:	ed9f6b0d 	vldr	d6, [pc, #52]	; 9d98 <__kernel_sin+0xa8>
    9d60:	ee034b06 	vmla.f64	d4, d3, d6
    9d64:	ee377b44 	vsub.f64	d7, d7, d4
    9d68:	eafffff5 	b	9d44 <__kernel_sin+0x54>
    9d6c:	e320f000 	nop	{0}
    9d70:	57b1fe7d 	.word	0x57b1fe7d
    9d74:	3ec71de3 	.word	0x3ec71de3
    9d78:	19c161d5 	.word	0x19c161d5
    9d7c:	3f2a01a0 	.word	0x3f2a01a0
    9d80:	1110f8a6 	.word	0x1110f8a6
    9d84:	3f811111 	.word	0x3f811111
    9d88:	5acfd57c 	.word	0x5acfd57c
    9d8c:	3de5d93a 	.word	0x3de5d93a
    9d90:	8a2b9ceb 	.word	0x8a2b9ceb
    9d94:	3e5ae5e6 	.word	0x3e5ae5e6
    9d98:	55555549 	.word	0x55555549
    9d9c:	3fc55555 	.word	0x3fc55555
    9da0:	00000000 	.word	0x00000000
    9da4:	3fe00000 	.word	0x3fe00000

00009da8 <__ieee754_rem_pio2>:
    9da8:	e92d4030 	push	{r4, r5, lr}
    9dac:	e24dd034 	sub	sp, sp, #52, 0	; 0x34
    9db0:	ec410b17 	vmov	d7, r0, r1
    9db4:	e1a04002 	mov	r4, r2
    9db8:	ee175a90 	vmov	r5, s15
    9dbc:	e3c53102 	bic	r3, r5, #-2147483648	; 0x80000000
    9dc0:	e59f13f8 	ldr	r1, [pc, #1016]	; a1c0 <__ieee754_rem_pio2+0x418>
    9dc4:	e1530001 	cmp	r3, r1
    9dc8:	ca000034 	bgt	9ea0 <__ieee754_rem_pio2+0xf8>
    9dcc:	e3c514ff 	bic	r1, r5, #-16777216	; 0xff000000
    9dd0:	e3c1160f 	bic	r1, r1, #15728640	; 0xf00000
    9dd4:	e59f23e8 	ldr	r2, [pc, #1000]	; a1c4 <__ieee754_rem_pio2+0x41c>
    9dd8:	e1510002 	cmp	r1, r2
    9ddc:	0a000076 	beq	9fbc <__ieee754_rem_pio2+0x214>
    9de0:	e59f23e0 	ldr	r2, [pc, #992]	; a1c8 <__ieee754_rem_pio2+0x420>
    9de4:	e1530002 	cmp	r3, r2
    9de8:	ca000016 	bgt	9e48 <__ieee754_rem_pio2+0xa0>
    9dec:	e3550000 	cmp	r5, #0, 0
    9df0:	da00000a 	ble	9e20 <__ieee754_rem_pio2+0x78>
    9df4:	ed9f6bd3 	vldr	d6, [pc, #844]	; a148 <__ieee754_rem_pio2+0x3a0>
    9df8:	ee377b46 	vsub.f64	d7, d7, d6
    9dfc:	ed9f6bd3 	vldr	d6, [pc, #844]	; a150 <__ieee754_rem_pio2+0x3a8>
    9e00:	ee375b46 	vsub.f64	d5, d7, d6
    9e04:	ed845b00 	vstr	d5, [r4]
    9e08:	ee377b45 	vsub.f64	d7, d7, d5
    9e0c:	ee377b46 	vsub.f64	d7, d7, d6
    9e10:	ed847b02 	vstr	d7, [r4, #8]
    9e14:	e3a00001 	mov	r0, #1, 0
    9e18:	e28dd034 	add	sp, sp, #52, 0	; 0x34
    9e1c:	e8bd8030 	pop	{r4, r5, pc}
    9e20:	ed9f6bc8 	vldr	d6, [pc, #800]	; a148 <__ieee754_rem_pio2+0x3a0>
    9e24:	ee377b06 	vadd.f64	d7, d7, d6
    9e28:	ed9f6bc8 	vldr	d6, [pc, #800]	; a150 <__ieee754_rem_pio2+0x3a8>
    9e2c:	ee375b06 	vadd.f64	d5, d7, d6
    9e30:	ed845b00 	vstr	d5, [r4]
    9e34:	ee377b45 	vsub.f64	d7, d7, d5
    9e38:	ee377b06 	vadd.f64	d7, d7, d6
    9e3c:	ed847b02 	vstr	d7, [r4, #8]
    9e40:	e3e00000 	mvn	r0, #0, 0
    9e44:	eafffff3 	b	9e18 <__ieee754_rem_pio2+0x70>
    9e48:	e3550000 	cmp	r5, #0, 0
    9e4c:	da000009 	ble	9e78 <__ieee754_rem_pio2+0xd0>
    9e50:	ed9f6bc0 	vldr	d6, [pc, #768]	; a158 <__ieee754_rem_pio2+0x3b0>
    9e54:	ee377b46 	vsub.f64	d7, d7, d6
    9e58:	ed9f6bc0 	vldr	d6, [pc, #768]	; a160 <__ieee754_rem_pio2+0x3b8>
    9e5c:	ee375b46 	vsub.f64	d5, d7, d6
    9e60:	ed845b00 	vstr	d5, [r4]
    9e64:	ee377b45 	vsub.f64	d7, d7, d5
    9e68:	ee377b46 	vsub.f64	d7, d7, d6
    9e6c:	ed847b02 	vstr	d7, [r4, #8]
    9e70:	e3a00002 	mov	r0, #2, 0
    9e74:	eaffffe7 	b	9e18 <__ieee754_rem_pio2+0x70>
    9e78:	ed9f6bb6 	vldr	d6, [pc, #728]	; a158 <__ieee754_rem_pio2+0x3b0>
    9e7c:	ee377b06 	vadd.f64	d7, d7, d6
    9e80:	ed9f6bb6 	vldr	d6, [pc, #728]	; a160 <__ieee754_rem_pio2+0x3b8>
    9e84:	ee375b06 	vadd.f64	d5, d7, d6
    9e88:	ed845b00 	vstr	d5, [r4]
    9e8c:	ee377b45 	vsub.f64	d7, d7, d5
    9e90:	ee377b06 	vadd.f64	d7, d7, d6
    9e94:	ed847b02 	vstr	d7, [r4, #8]
    9e98:	e3e00001 	mvn	r0, #1, 0
    9e9c:	eaffffdd 	b	9e18 <__ieee754_rem_pio2+0x70>
    9ea0:	e59f2324 	ldr	r2, [pc, #804]	; a1cc <__ieee754_rem_pio2+0x424>
    9ea4:	e1530002 	cmp	r3, r2
    9ea8:	ca000035 	bgt	9f84 <__ieee754_rem_pio2+0x1dc>
    9eac:	e59f231c 	ldr	r2, [pc, #796]	; a1d0 <__ieee754_rem_pio2+0x428>
    9eb0:	e1530002 	cmp	r3, r2
    9eb4:	ca000019 	bgt	9f20 <__ieee754_rem_pio2+0x178>
    9eb8:	e2422bc9 	sub	r2, r2, #205824	; 0x32400
    9ebc:	e2422040 	sub	r2, r2, #64, 0	; 0x40
    9ec0:	e1530002 	cmp	r3, r2
    9ec4:	0a00003c 	beq	9fbc <__ieee754_rem_pio2+0x214>
    9ec8:	e3550000 	cmp	r5, #0, 0
    9ecc:	da000009 	ble	9ef8 <__ieee754_rem_pio2+0x150>
    9ed0:	ed9f6ba4 	vldr	d6, [pc, #656]	; a168 <__ieee754_rem_pio2+0x3c0>
    9ed4:	ee377b46 	vsub.f64	d7, d7, d6
    9ed8:	ed9f6ba4 	vldr	d6, [pc, #656]	; a170 <__ieee754_rem_pio2+0x3c8>
    9edc:	ee375b46 	vsub.f64	d5, d7, d6
    9ee0:	ed845b00 	vstr	d5, [r4]
    9ee4:	ee377b45 	vsub.f64	d7, d7, d5
    9ee8:	ee377b46 	vsub.f64	d7, d7, d6
    9eec:	ed847b02 	vstr	d7, [r4, #8]
    9ef0:	e3a00003 	mov	r0, #3, 0
    9ef4:	eaffffc7 	b	9e18 <__ieee754_rem_pio2+0x70>
    9ef8:	ed9f6b9a 	vldr	d6, [pc, #616]	; a168 <__ieee754_rem_pio2+0x3c0>
    9efc:	ee377b06 	vadd.f64	d7, d7, d6
    9f00:	ed9f6b9a 	vldr	d6, [pc, #616]	; a170 <__ieee754_rem_pio2+0x3c8>
    9f04:	ee375b06 	vadd.f64	d5, d7, d6
    9f08:	ed845b00 	vstr	d5, [r4]
    9f0c:	ee377b45 	vsub.f64	d7, d7, d5
    9f10:	ee377b06 	vadd.f64	d7, d7, d6
    9f14:	ed847b02 	vstr	d7, [r4, #8]
    9f18:	e3e00002 	mvn	r0, #2, 0
    9f1c:	eaffffbd 	b	9e18 <__ieee754_rem_pio2+0x70>
    9f20:	e59f22ac 	ldr	r2, [pc, #684]	; a1d4 <__ieee754_rem_pio2+0x42c>
    9f24:	e1530002 	cmp	r3, r2
    9f28:	0a000023 	beq	9fbc <__ieee754_rem_pio2+0x214>
    9f2c:	e3550000 	cmp	r5, #0, 0
    9f30:	da000009 	ble	9f5c <__ieee754_rem_pio2+0x1b4>
    9f34:	ed9f6b8f 	vldr	d6, [pc, #572]	; a178 <__ieee754_rem_pio2+0x3d0>
    9f38:	ee377b46 	vsub.f64	d7, d7, d6
    9f3c:	ed9f6b8f 	vldr	d6, [pc, #572]	; a180 <__ieee754_rem_pio2+0x3d8>
    9f40:	ee375b46 	vsub.f64	d5, d7, d6
    9f44:	ed845b00 	vstr	d5, [r4]
    9f48:	ee377b45 	vsub.f64	d7, d7, d5
    9f4c:	ee377b46 	vsub.f64	d7, d7, d6
    9f50:	ed847b02 	vstr	d7, [r4, #8]
    9f54:	e3a00004 	mov	r0, #4, 0
    9f58:	eaffffae 	b	9e18 <__ieee754_rem_pio2+0x70>
    9f5c:	ed9f6b85 	vldr	d6, [pc, #532]	; a178 <__ieee754_rem_pio2+0x3d0>
    9f60:	ee377b06 	vadd.f64	d7, d7, d6
    9f64:	ed9f6b85 	vldr	d6, [pc, #532]	; a180 <__ieee754_rem_pio2+0x3d8>
    9f68:	ee375b06 	vadd.f64	d5, d7, d6
    9f6c:	ed845b00 	vstr	d5, [r4]
    9f70:	ee377b45 	vsub.f64	d7, d7, d5
    9f74:	ee377b06 	vadd.f64	d7, d7, d6
    9f78:	ed847b02 	vstr	d7, [r4, #8]
    9f7c:	e3e00003 	mvn	r0, #3, 0
    9f80:	eaffffa4 	b	9e18 <__ieee754_rem_pio2+0x70>
    9f84:	e59f224c 	ldr	r2, [pc, #588]	; a1d8 <__ieee754_rem_pio2+0x430>
    9f88:	e1530002 	cmp	r3, r2
    9f8c:	da00000a 	ble	9fbc <__ieee754_rem_pio2+0x214>
    9f90:	e59f2244 	ldr	r2, [pc, #580]	; a1dc <__ieee754_rem_pio2+0x434>
    9f94:	e1530002 	cmp	r3, r2
    9f98:	ca00003c 	bgt	a090 <__ieee754_rem_pio2+0x2e8>
    9f9c:	e1a02a43 	asr	r2, r3, #20
    9fa0:	e2422e41 	sub	r2, r2, #1040	; 0x410
    9fa4:	e2422006 	sub	r2, r2, #6, 0
    9fa8:	e0431a02 	sub	r1, r3, r2, lsl #20
    9fac:	ee170a10 	vmov	r0, s14
    9fb0:	ec410b17 	vmov	d7, r0, r1
    9fb4:	e3a03000 	mov	r3, #0, 0
    9fb8:	ea000042 	b	a0c8 <__ieee754_rem_pio2+0x320>
    9fbc:	ed9f6b71 	vldr	d6, [pc, #452]	; a188 <__ieee754_rem_pio2+0x3e0>
    9fc0:	ed9f5b72 	vldr	d5, [pc, #456]	; a190 <__ieee754_rem_pio2+0x3e8>
    9fc4:	eeb04b46 	vmov.f64	d4, d6
    9fc8:	ee074b05 	vmla.f64	d4, d7, d5
    9fcc:	ee344b46 	vsub.f64	d4, d4, d6
    9fd0:	eefd6bc4 	vcvt.s32.f64	s13, d4
    9fd4:	ee160a90 	vmov	r0, s13
    9fd8:	ed9f6b5a 	vldr	d6, [pc, #360]	; a148 <__ieee754_rem_pio2+0x3a0>
    9fdc:	ee047b46 	vmls.f64	d7, d4, d6
    9fe0:	ed9f6b5a 	vldr	d6, [pc, #360]	; a150 <__ieee754_rem_pio2+0x3a8>
    9fe4:	ee246b06 	vmul.f64	d6, d4, d6
    9fe8:	e1a01a43 	asr	r1, r3, #20
    9fec:	ee375b46 	vsub.f64	d5, d7, d6
    9ff0:	ed845b00 	vstr	d5, [r4]
    9ff4:	ee152a90 	vmov	r2, s11
    9ff8:	e1a02a22 	lsr	r2, r2, #20
    9ffc:	e1a02a82 	lsl	r2, r2, #21
    a000:	e1a02aa2 	lsr	r2, r2, #21
    a004:	e0623a43 	rsb	r3, r2, r3, asr #20
    a008:	e3530010 	cmp	r3, #16, 0
    a00c:	da000018 	ble	a074 <__ieee754_rem_pio2+0x2cc>
    a010:	ed9f5b60 	vldr	d5, [pc, #384]	; a198 <__ieee754_rem_pio2+0x3f0>
    a014:	ee245b05 	vmul.f64	d5, d4, d5
    a018:	ee373b45 	vsub.f64	d3, d7, d5
    a01c:	ee376b43 	vsub.f64	d6, d7, d3
    a020:	ee366b45 	vsub.f64	d6, d6, d5
    a024:	ed9f7b5d 	vldr	d7, [pc, #372]	; a1a0 <__ieee754_rem_pio2+0x3f8>
    a028:	ee146b07 	vnmls.f64	d6, d4, d7
    a02c:	ee337b46 	vsub.f64	d7, d3, d6
    a030:	ed847b00 	vstr	d7, [r4]
    a034:	ee173a90 	vmov	r3, s15
    a038:	e1a03a23 	lsr	r3, r3, #20
    a03c:	e1a03a83 	lsl	r3, r3, #21
    a040:	e1a03aa3 	lsr	r3, r3, #21
    a044:	e0413003 	sub	r3, r1, r3
    a048:	e3530031 	cmp	r3, #49, 0	; 0x31
    a04c:	da00000d 	ble	a088 <__ieee754_rem_pio2+0x2e0>
    a050:	ed9f5b54 	vldr	d5, [pc, #336]	; a1a8 <__ieee754_rem_pio2+0x400>
    a054:	ee245b05 	vmul.f64	d5, d4, d5
    a058:	ee337b45 	vsub.f64	d7, d3, d5
    a05c:	ee336b47 	vsub.f64	d6, d3, d7
    a060:	ee366b45 	vsub.f64	d6, d6, d5
    a064:	ed9f5b51 	vldr	d5, [pc, #324]	; a1b0 <__ieee754_rem_pio2+0x408>
    a068:	ee146b05 	vnmls.f64	d6, d4, d5
    a06c:	ee375b46 	vsub.f64	d5, d7, d6
    a070:	ed845b00 	vstr	d5, [r4]
    a074:	ed945b00 	vldr	d5, [r4]
    a078:	ee377b45 	vsub.f64	d7, d7, d5
    a07c:	ee376b46 	vsub.f64	d6, d7, d6
    a080:	ed846b02 	vstr	d6, [r4, #8]
    a084:	eaffff63 	b	9e18 <__ieee754_rem_pio2+0x70>
    a088:	eeb07b43 	vmov.f64	d7, d3
    a08c:	eafffff8 	b	a074 <__ieee754_rem_pio2+0x2cc>
    a090:	ee377b47 	vsub.f64	d7, d7, d7
    a094:	ed847b02 	vstr	d7, [r4, #8]
    a098:	ed847b00 	vstr	d7, [r4]
    a09c:	e3a00000 	mov	r0, #0, 0
    a0a0:	eaffff5c 	b	9e18 <__ieee754_rem_pio2+0x70>
    a0a4:	eebd6bc7 	vcvt.s32.f64	s12, d7
    a0a8:	eeb86bc6 	vcvt.f64.s32	d6, s12
    a0ac:	e28d1030 	add	r1, sp, #48, 0	; 0x30
    a0b0:	e0811183 	add	r1, r1, r3, lsl #3
    a0b4:	ed016b06 	vstr	d6, [r1, #-24]	; 0xffffffe8
    a0b8:	ee377b46 	vsub.f64	d7, d7, d6
    a0bc:	ed9f6b3d 	vldr	d6, [pc, #244]	; a1b8 <__ieee754_rem_pio2+0x410>
    a0c0:	ee277b06 	vmul.f64	d7, d7, d6
    a0c4:	e2833001 	add	r3, r3, #1, 0
    a0c8:	e3530001 	cmp	r3, #1, 0
    a0cc:	dafffff4 	ble	a0a4 <__ieee754_rem_pio2+0x2fc>
    a0d0:	ed8d7b0a 	vstr	d7, [sp, #40]	; 0x28
    a0d4:	e3a01003 	mov	r1, #3, 0
    a0d8:	e1a03001 	mov	r3, r1
    a0dc:	e2411001 	sub	r1, r1, #1, 0
    a0e0:	e28d0030 	add	r0, sp, #48, 0	; 0x30
    a0e4:	e0800181 	add	r0, r0, r1, lsl #3
    a0e8:	ed107b06 	vldr	d7, [r0, #-24]	; 0xffffffe8
    a0ec:	eeb57b40 	vcmp.f64	d7, #0.0
    a0f0:	eef1fa10 	vmrs	APSR_nzcv, fpscr
    a0f4:	0afffff7 	beq	a0d8 <__ieee754_rem_pio2+0x330>
    a0f8:	e3a01001 	mov	r1, #1, 0
    a0fc:	e58d1000 	str	r1, [sp]
    a100:	e28d1008 	add	r1, sp, #8, 0
    a104:	e28d0018 	add	r0, sp, #24, 0
    a108:	eb000034 	bl	a1e0 <__kernel_rem_pio2>
    a10c:	e3550000 	cmp	r5, #0, 0
    a110:	ba000004 	blt	a128 <__ieee754_rem_pio2+0x380>
    a114:	e1cd20d8 	ldrd	r2, [sp, #8]
    a118:	e1c420f0 	strd	r2, [r4]
    a11c:	e1cd21d0 	ldrd	r2, [sp, #16]
    a120:	e1c420f8 	strd	r2, [r4, #8]
    a124:	eaffff3b 	b	9e18 <__ieee754_rem_pio2+0x70>
    a128:	ed9d7b02 	vldr	d7, [sp, #8]
    a12c:	eeb17b47 	vneg.f64	d7, d7
    a130:	ed847b00 	vstr	d7, [r4]
    a134:	ed9d7b04 	vldr	d7, [sp, #16]
    a138:	eeb17b47 	vneg.f64	d7, d7
    a13c:	ed847b02 	vstr	d7, [r4, #8]
    a140:	e2600000 	rsb	r0, r0, #0, 0
    a144:	eaffff33 	b	9e18 <__ieee754_rem_pio2+0x70>
    a148:	54400000 	.word	0x54400000
    a14c:	3ff921fb 	.word	0x3ff921fb
    a150:	1a626331 	.word	0x1a626331
    a154:	3dd0b461 	.word	0x3dd0b461
    a158:	54400000 	.word	0x54400000
    a15c:	400921fb 	.word	0x400921fb
    a160:	1a626331 	.word	0x1a626331
    a164:	3de0b461 	.word	0x3de0b461
    a168:	7f300000 	.word	0x7f300000
    a16c:	4012d97c 	.word	0x4012d97c
    a170:	a79394ca 	.word	0xa79394ca
    a174:	3de90e91 	.word	0x3de90e91
    a178:	54400000 	.word	0x54400000
    a17c:	401921fb 	.word	0x401921fb
    a180:	1a626331 	.word	0x1a626331
    a184:	3df0b461 	.word	0x3df0b461
    a188:	00000000 	.word	0x00000000
    a18c:	43380000 	.word	0x43380000
    a190:	6dc9c883 	.word	0x6dc9c883
    a194:	3fe45f30 	.word	0x3fe45f30
    a198:	1a600000 	.word	0x1a600000
    a19c:	3dd0b461 	.word	0x3dd0b461
    a1a0:	2e037073 	.word	0x2e037073
    a1a4:	3ba3198a 	.word	0x3ba3198a
    a1a8:	2e000000 	.word	0x2e000000
    a1ac:	3ba3198a 	.word	0x3ba3198a
    a1b0:	252049c1 	.word	0x252049c1
    a1b4:	397b839a 	.word	0x397b839a
    a1b8:	00000000 	.word	0x00000000
    a1bc:	41700000 	.word	0x41700000
    a1c0:	400f6a7a 	.word	0x400f6a7a
    a1c4:	000921fb 	.word	0x000921fb
    a1c8:	4002d97c 	.word	0x4002d97c
    a1cc:	401c463b 	.word	0x401c463b
    a1d0:	4015fdbc 	.word	0x4015fdbc
    a1d4:	401921fb 	.word	0x401921fb
    a1d8:	413921fa 	.word	0x413921fa
    a1dc:	7fefffff 	.word	0x7fefffff

0000a1e0 <__kernel_rem_pio2>:
    a1e0:	e92d4ff0 	push	{r4, r5, r6, r7, r8, r9, sl, fp, lr}
    a1e4:	ed2d8b04 	vpush	{d8-d9}
    a1e8:	e24ddf8d 	sub	sp, sp, #564	; 0x234
    a1ec:	e1a05000 	mov	r5, r0
    a1f0:	e1a0b001 	mov	fp, r1
    a1f4:	e1a0a002 	mov	sl, r2
    a1f8:	e59f2450 	ldr	r2, [pc, #1104]	; a650 <__kernel_rem_pio2+0x470>
    a1fc:	e59d1268 	ldr	r1, [sp, #616]	; 0x268
    a200:	e7927101 	ldr	r7, [r2, r1, lsl #2]
    a204:	e2434001 	sub	r4, r3, #1, 0
    a208:	e24a3003 	sub	r3, sl, #3, 0
    a20c:	e59f8440 	ldr	r8, [pc, #1088]	; a654 <__kernel_rem_pio2+0x474>
    a210:	e0c82398 	smull	r2, r8, r8, r3
    a214:	e1a03fc3 	asr	r3, r3, #31
    a218:	e0638148 	rsb	r8, r3, r8, asr #2
    a21c:	e37a0014 	cmn	sl, #20, 0
    a220:	b3a08000 	movlt	r8, #0, 0
    a224:	e2883001 	add	r3, r8, #1, 0
    a228:	e0433103 	sub	r3, r3, r3, lsl #2
    a22c:	e08aa183 	add	sl, sl, r3, lsl #3
    a230:	e0482004 	sub	r2, r8, r4
    a234:	e0870004 	add	r0, r7, r4
    a238:	e3a03000 	mov	r3, #0, 0
    a23c:	ea000005 	b	a258 <__kernel_rem_pio2+0x78>
    a240:	ed9f7bf4 	vldr	d7, [pc, #976]	; a618 <__kernel_rem_pio2+0x438>
    a244:	e28d1e23 	add	r1, sp, #560	; 0x230
    a248:	e0811183 	add	r1, r1, r3, lsl #3
    a24c:	ed017b3c 	vstr	d7, [r1, #-240]	; 0xffffff10
    a250:	e2833001 	add	r3, r3, #1, 0
    a254:	e2822001 	add	r2, r2, #1, 0
    a258:	e1530000 	cmp	r3, r0
    a25c:	ca000006 	bgt	a27c <__kernel_rem_pio2+0x9c>
    a260:	e3520000 	cmp	r2, #0, 0
    a264:	bafffff5 	blt	a240 <__kernel_rem_pio2+0x60>
    a268:	e59f13e0 	ldr	r1, [pc, #992]	; a650 <__kernel_rem_pio2+0x470>
    a26c:	e0811102 	add	r1, r1, r2, lsl #2
    a270:	ed917a04 	vldr	s14, [r1, #16]
    a274:	eeb87bc7 	vcvt.f64.s32	d7, s14
    a278:	eafffff1 	b	a244 <__kernel_rem_pio2+0x64>
    a27c:	e3a01000 	mov	r1, #0, 0
    a280:	ea00000e 	b	a2c0 <__kernel_rem_pio2+0xe0>
    a284:	e0853182 	add	r3, r5, r2, lsl #3
    a288:	ed935b00 	vldr	d5, [r3]
    a28c:	e0813004 	add	r3, r1, r4
    a290:	e0433002 	sub	r3, r3, r2
    a294:	e28d0e23 	add	r0, sp, #560	; 0x230
    a298:	e0803183 	add	r3, r0, r3, lsl #3
    a29c:	ed136b3c 	vldr	d6, [r3, #-240]	; 0xffffff10
    a2a0:	ee057b06 	vmla.f64	d7, d5, d6
    a2a4:	e2822001 	add	r2, r2, #1, 0
    a2a8:	e1520004 	cmp	r2, r4
    a2ac:	dafffff4 	ble	a284 <__kernel_rem_pio2+0xa4>
    a2b0:	e28d3e23 	add	r3, sp, #560	; 0x230
    a2b4:	e0833181 	add	r3, r3, r1, lsl #3
    a2b8:	ed037b8c 	vstr	d7, [r3, #-560]	; 0xfffffdd0
    a2bc:	e2811001 	add	r1, r1, #1, 0
    a2c0:	e1510007 	cmp	r1, r7
    a2c4:	dd9f7bd3 	vldrle	d7, [pc, #844]	; a618 <__kernel_rem_pio2+0x438>
    a2c8:	d3a02000 	movle	r2, #0, 0
    a2cc:	dafffff5 	ble	a2a8 <__kernel_rem_pio2+0xc8>
    a2d0:	e1a06007 	mov	r6, r7
    a2d4:	ea0000b4 	b	a5ac <__kernel_rem_pio2+0x3cc>
    a2d8:	ed9f6bd0 	vldr	d6, [pc, #832]	; a620 <__kernel_rem_pio2+0x440>
    a2dc:	ee276b06 	vmul.f64	d6, d7, d6
    a2e0:	eebd6bc6 	vcvt.s32.f64	s12, d6
    a2e4:	eeb86bc6 	vcvt.f64.s32	d6, s12
    a2e8:	ed9f5bce 	vldr	d5, [pc, #824]	; a628 <__kernel_rem_pio2+0x448>
    a2ec:	ee067b45 	vmls.f64	d7, d6, d5
    a2f0:	eebd7bc7 	vcvt.s32.f64	s14, d7
    a2f4:	e28d1e23 	add	r1, sp, #560	; 0x230
    a2f8:	e0811102 	add	r1, r1, r2, lsl #2
    a2fc:	ed017a14 	vstr	s14, [r1, #-80]	; 0xffffffb0
    a300:	e2433001 	sub	r3, r3, #1, 0
    a304:	e28d1e23 	add	r1, sp, #560	; 0x230
    a308:	e0811183 	add	r1, r1, r3, lsl #3
    a30c:	ed117b8c 	vldr	d7, [r1, #-560]	; 0xfffffdd0
    a310:	ee377b06 	vadd.f64	d7, d7, d6
    a314:	e2822001 	add	r2, r2, #1, 0
    a318:	e3530000 	cmp	r3, #0, 0
    a31c:	caffffed 	bgt	a2d8 <__kernel_rem_pio2+0xf8>
    a320:	e1a0200a 	mov	r2, sl
    a324:	ec510b17 	vmov	r0, r1, d7
    a328:	eb00018c 	bl	a960 <scalbn>
    a32c:	ec410b18 	vmov	d8, r0, r1
    a330:	ed9f7bbe 	vldr	d7, [pc, #760]	; a630 <__kernel_rem_pio2+0x450>
    a334:	ee287b07 	vmul.f64	d7, d8, d7
    a338:	ec510b17 	vmov	r0, r1, d7
    a33c:	eb0001eb 	bl	aaf0 <floor>
    a340:	ec410b16 	vmov	d6, r0, r1
    a344:	ed9f7bbb 	vldr	d7, [pc, #748]	; a638 <__kernel_rem_pio2+0x458>
    a348:	ee068b47 	vmls.f64	d8, d6, d7
    a34c:	eebd9bc8 	vcvt.s32.f64	s18, d8
    a350:	eeb87bc9 	vcvt.f64.s32	d7, s18
    a354:	ee388b47 	vsub.f64	d8, d8, d7
    a358:	e35a0000 	cmp	sl, #0, 0
    a35c:	da000014 	ble	a3b4 <__kernel_rem_pio2+0x1d4>
    a360:	e2463001 	sub	r3, r6, #1, 0
    a364:	e28d2e23 	add	r2, sp, #560	; 0x230
    a368:	e0823103 	add	r3, r2, r3, lsl #2
    a36c:	e5139050 	ldr	r9, [r3, #-80]	; 0xffffffb0
    a370:	e26a2018 	rsb	r2, sl, #24, 0
    a374:	e1a01259 	asr	r1, r9, r2
    a378:	ee190a10 	vmov	r0, s18
    a37c:	e0800001 	add	r0, r0, r1
    a380:	ee090a10 	vmov	s18, r0
    a384:	e0499211 	sub	r9, r9, r1, lsl r2
    a388:	e5039050 	str	r9, [r3, #-80]	; 0xffffffb0
    a38c:	e26a3017 	rsb	r3, sl, #23, 0
    a390:	e1a09359 	asr	r9, r9, r3
    a394:	e3590000 	cmp	r9, #0, 0
    a398:	ca000013 	bgt	a3ec <__kernel_rem_pio2+0x20c>
    a39c:	eeb58b40 	vcmp.f64	d8, #0.0
    a3a0:	eef1fa10 	vmrs	APSR_nzcv, fpscr
    a3a4:	1a000086 	bne	a5c4 <__kernel_rem_pio2+0x3e4>
    a3a8:	e2463001 	sub	r3, r6, #1, 0
    a3ac:	e3a0e000 	mov	lr, #0, 0
    a3b0:	ea000050 	b	a4f8 <__kernel_rem_pio2+0x318>
    a3b4:	e35a0000 	cmp	sl, #0, 0
    a3b8:	1a000005 	bne	a3d4 <__kernel_rem_pio2+0x1f4>
    a3bc:	e2463001 	sub	r3, r6, #1, 0
    a3c0:	e28d2e23 	add	r2, sp, #560	; 0x230
    a3c4:	e0823103 	add	r3, r2, r3, lsl #2
    a3c8:	e5139050 	ldr	r9, [r3, #-80]	; 0xffffffb0
    a3cc:	e1a09bc9 	asr	r9, r9, #23
    a3d0:	eaffffef 	b	a394 <__kernel_rem_pio2+0x1b4>
    a3d4:	ed9f7b99 	vldr	d7, [pc, #612]	; a640 <__kernel_rem_pio2+0x460>
    a3d8:	eeb48bc7 	vcmpe.f64	d8, d7
    a3dc:	eef1fa10 	vmrs	APSR_nzcv, fpscr
    a3e0:	b3a09000 	movlt	r9, #0, 0
    a3e4:	baffffec 	blt	a39c <__kernel_rem_pio2+0x1bc>
    a3e8:	e3a09002 	mov	r9, #2, 0
    a3ec:	ee193a10 	vmov	r3, s18
    a3f0:	e2833001 	add	r3, r3, #1, 0
    a3f4:	ee093a10 	vmov	s18, r3
    a3f8:	e3a03000 	mov	r3, #0, 0
    a3fc:	e1a01003 	mov	r1, r3
    a400:	ea000006 	b	a420 <__kernel_rem_pio2+0x240>
    a404:	e26228ff 	rsb	r2, r2, #16711680	; 0xff0000
    a408:	e2822cff 	add	r2, r2, #65280	; 0xff00
    a40c:	e28220ff 	add	r2, r2, #255, 0	; 0xff
    a410:	e28d0e23 	add	r0, sp, #560	; 0x230
    a414:	e0800103 	add	r0, r0, r3, lsl #2
    a418:	e5002050 	str	r2, [r0, #-80]	; 0xffffffb0
    a41c:	e2833001 	add	r3, r3, #1, 0
    a420:	e1560003 	cmp	r6, r3
    a424:	da00000c 	ble	a45c <__kernel_rem_pio2+0x27c>
    a428:	e28d2e23 	add	r2, sp, #560	; 0x230
    a42c:	e0822103 	add	r2, r2, r3, lsl #2
    a430:	e5122050 	ldr	r2, [r2, #-80]	; 0xffffffb0
    a434:	e3510000 	cmp	r1, #0, 0
    a438:	1afffff1 	bne	a404 <__kernel_rem_pio2+0x224>
    a43c:	e3520000 	cmp	r2, #0, 0
    a440:	0afffff5 	beq	a41c <__kernel_rem_pio2+0x23c>
    a444:	e2622401 	rsb	r2, r2, #16777216	; 0x1000000
    a448:	e28d1e23 	add	r1, sp, #560	; 0x230
    a44c:	e0811103 	add	r1, r1, r3, lsl #2
    a450:	e5012050 	str	r2, [r1, #-80]	; 0xffffffb0
    a454:	e3a01001 	mov	r1, #1, 0
    a458:	eaffffef 	b	a41c <__kernel_rem_pio2+0x23c>
    a45c:	e35a0000 	cmp	sl, #0, 0
    a460:	da000003 	ble	a474 <__kernel_rem_pio2+0x294>
    a464:	e35a0001 	cmp	sl, #1, 0
    a468:	0a00000d 	beq	a4a4 <__kernel_rem_pio2+0x2c4>
    a46c:	e35a0002 	cmp	sl, #2, 0
    a470:	0a000013 	beq	a4c4 <__kernel_rem_pio2+0x2e4>
    a474:	e3590002 	cmp	r9, #2, 0
    a478:	1affffc7 	bne	a39c <__kernel_rem_pio2+0x1bc>
    a47c:	ed9f7b71 	vldr	d7, [pc, #452]	; a648 <__kernel_rem_pio2+0x468>
    a480:	ee378b48 	vsub.f64	d8, d7, d8
    a484:	e3510000 	cmp	r1, #0, 0
    a488:	0affffc3 	beq	a39c <__kernel_rem_pio2+0x1bc>
    a48c:	e1a0200a 	mov	r2, sl
    a490:	ec510b17 	vmov	r0, r1, d7
    a494:	eb000131 	bl	a960 <scalbn>
    a498:	ec410b17 	vmov	d7, r0, r1
    a49c:	ee388b47 	vsub.f64	d8, d8, d7
    a4a0:	eaffffbd 	b	a39c <__kernel_rem_pio2+0x1bc>
    a4a4:	e2462001 	sub	r2, r6, #1, 0
    a4a8:	e28d3e23 	add	r3, sp, #560	; 0x230
    a4ac:	e0832102 	add	r2, r3, r2, lsl #2
    a4b0:	e5123050 	ldr	r3, [r2, #-80]	; 0xffffffb0
    a4b4:	e3c334ff 	bic	r3, r3, #-16777216	; 0xff000000
    a4b8:	e3c33502 	bic	r3, r3, #8388608	; 0x800000
    a4bc:	e5023050 	str	r3, [r2, #-80]	; 0xffffffb0
    a4c0:	eaffffeb 	b	a474 <__kernel_rem_pio2+0x294>
    a4c4:	e2462001 	sub	r2, r6, #1, 0
    a4c8:	e28d3e23 	add	r3, sp, #560	; 0x230
    a4cc:	e0832102 	add	r2, r3, r2, lsl #2
    a4d0:	e5123050 	ldr	r3, [r2, #-80]	; 0xffffffb0
    a4d4:	e3c334ff 	bic	r3, r3, #-16777216	; 0xff000000
    a4d8:	e3c33503 	bic	r3, r3, #12582912	; 0xc00000
    a4dc:	e5023050 	str	r3, [r2, #-80]	; 0xffffffb0
    a4e0:	eaffffe3 	b	a474 <__kernel_rem_pio2+0x294>
    a4e4:	e28d2e23 	add	r2, sp, #560	; 0x230
    a4e8:	e0822103 	add	r2, r2, r3, lsl #2
    a4ec:	e5122050 	ldr	r2, [r2, #-80]	; 0xffffffb0
    a4f0:	e18ee002 	orr	lr, lr, r2
    a4f4:	e2433001 	sub	r3, r3, #1, 0
    a4f8:	e1530007 	cmp	r3, r7
    a4fc:	aafffff8 	bge	a4e4 <__kernel_rem_pio2+0x304>
    a500:	e35e0000 	cmp	lr, #0, 0
    a504:	1a00002e 	bne	a5c4 <__kernel_rem_pio2+0x3e4>
    a508:	e3a0c001 	mov	ip, #1, 0
    a50c:	ea000000 	b	a514 <__kernel_rem_pio2+0x334>
    a510:	e28cc001 	add	ip, ip, #1, 0
    a514:	e047300c 	sub	r3, r7, ip
    a518:	e28d2e23 	add	r2, sp, #560	; 0x230
    a51c:	e0823103 	add	r3, r2, r3, lsl #2
    a520:	e5133050 	ldr	r3, [r3, #-80]	; 0xffffffb0
    a524:	e3530000 	cmp	r3, #0, 0
    a528:	0afffff8 	beq	a510 <__kernel_rem_pio2+0x330>
    a52c:	e2860001 	add	r0, r6, #1, 0
    a530:	ea00000d 	b	a56c <__kernel_rem_pio2+0x38c>
    a534:	e0852183 	add	r2, r5, r3, lsl #3
    a538:	ed925b00 	vldr	d5, [r2]
    a53c:	e0412003 	sub	r2, r1, r3
    a540:	e28d9e23 	add	r9, sp, #560	; 0x230
    a544:	e0892182 	add	r2, r9, r2, lsl #3
    a548:	ed126b3c 	vldr	d6, [r2, #-240]	; 0xffffff10
    a54c:	ee057b06 	vmla.f64	d7, d5, d6
    a550:	e2833001 	add	r3, r3, #1, 0
    a554:	e1530004 	cmp	r3, r4
    a558:	dafffff5 	ble	a534 <__kernel_rem_pio2+0x354>
    a55c:	e28d3e23 	add	r3, sp, #560	; 0x230
    a560:	e0833180 	add	r3, r3, r0, lsl #3
    a564:	ed037b8c 	vstr	d7, [r3, #-560]	; 0xfffffdd0
    a568:	e2800001 	add	r0, r0, #1, 0
    a56c:	e086300c 	add	r3, r6, ip
    a570:	e1530000 	cmp	r3, r0
    a574:	ba00000b 	blt	a5a8 <__kernel_rem_pio2+0x3c8>
    a578:	e0883000 	add	r3, r8, r0
    a57c:	e59f20cc 	ldr	r2, [pc, #204]	; a650 <__kernel_rem_pio2+0x470>
    a580:	e0823103 	add	r3, r2, r3, lsl #2
    a584:	ed937a04 	vldr	s14, [r3, #16]
    a588:	e0801004 	add	r1, r0, r4
    a58c:	eeb87bc7 	vcvt.f64.s32	d7, s14
    a590:	e28d3e23 	add	r3, sp, #560	; 0x230
    a594:	e0833181 	add	r3, r3, r1, lsl #3
    a598:	ed037b3c 	vstr	d7, [r3, #-240]	; 0xffffff10
    a59c:	e1a0300e 	mov	r3, lr
    a5a0:	ed9f7b1c 	vldr	d7, [pc, #112]	; a618 <__kernel_rem_pio2+0x438>
    a5a4:	eaffffea 	b	a554 <__kernel_rem_pio2+0x374>
    a5a8:	e1a06003 	mov	r6, r3
    a5ac:	e28d3e23 	add	r3, sp, #560	; 0x230
    a5b0:	e0833186 	add	r3, r3, r6, lsl #3
    a5b4:	ed137b8c 	vldr	d7, [r3, #-560]	; 0xfffffdd0
    a5b8:	e1a03006 	mov	r3, r6
    a5bc:	e3a02000 	mov	r2, #0, 0
    a5c0:	eaffff54 	b	a318 <__kernel_rem_pio2+0x138>
    a5c4:	eeb58b40 	vcmp.f64	d8, #0.0
    a5c8:	eef1fa10 	vmrs	APSR_nzcv, fpscr
    a5cc:	1a000022 	bne	a65c <__kernel_rem_pio2+0x47c>
    a5d0:	e2466001 	sub	r6, r6, #1, 0
    a5d4:	e24aa018 	sub	sl, sl, #24, 0
    a5d8:	ea000001 	b	a5e4 <__kernel_rem_pio2+0x404>
    a5dc:	e2466001 	sub	r6, r6, #1, 0
    a5e0:	e24aa018 	sub	sl, sl, #24, 0
    a5e4:	e28d3e23 	add	r3, sp, #560	; 0x230
    a5e8:	e0833106 	add	r3, r3, r6, lsl #2
    a5ec:	e5133050 	ldr	r3, [r3, #-80]	; 0xffffffb0
    a5f0:	e3530000 	cmp	r3, #0, 0
    a5f4:	0afffff8 	beq	a5dc <__kernel_rem_pio2+0x3fc>
    a5f8:	e1a0200a 	mov	r2, sl
    a5fc:	e3a00000 	mov	r0, #0, 0
    a600:	e59f1050 	ldr	r1, [pc, #80]	; a658 <__kernel_rem_pio2+0x478>
    a604:	eb0000d5 	bl	a960 <scalbn>
    a608:	ec410b16 	vmov	d6, r0, r1
    a60c:	e1a03006 	mov	r3, r6
    a610:	ea000039 	b	a6fc <__kernel_rem_pio2+0x51c>
    a614:	e320f000 	nop	{0}
	...
    a624:	3e700000 	.word	0x3e700000
    a628:	00000000 	.word	0x00000000
    a62c:	41700000 	.word	0x41700000
    a630:	00000000 	.word	0x00000000
    a634:	3fc00000 	.word	0x3fc00000
    a638:	00000000 	.word	0x00000000
    a63c:	40200000 	.word	0x40200000
    a640:	00000000 	.word	0x00000000
    a644:	3fe00000 	.word	0x3fe00000
    a648:	00000000 	.word	0x00000000
    a64c:	3ff00000 	.word	0x3ff00000
    a650:	0000d2b0 	.word	0x0000d2b0
    a654:	2aaaaaab 	.word	0x2aaaaaab
    a658:	3ff00000 	.word	0x3ff00000
    a65c:	e26a2000 	rsb	r2, sl, #0, 0
    a660:	ec510b18 	vmov	r0, r1, d8
    a664:	eb0000bd 	bl	a960 <scalbn>
    a668:	ec410b17 	vmov	d7, r0, r1
    a66c:	ed9f6bb3 	vldr	d6, [pc, #716]	; a940 <__kernel_rem_pio2+0x760>
    a670:	eeb47bc6 	vcmpe.f64	d7, d6
    a674:	eef1fa10 	vmrs	APSR_nzcv, fpscr
    a678:	ba00000f 	blt	a6bc <__kernel_rem_pio2+0x4dc>
    a67c:	ed9f6bb1 	vldr	d6, [pc, #708]	; a948 <__kernel_rem_pio2+0x768>
    a680:	ee276b06 	vmul.f64	d6, d7, d6
    a684:	eebd6bc6 	vcvt.s32.f64	s12, d6
    a688:	eeb84bc6 	vcvt.f64.s32	d4, s12
    a68c:	ed9f5bab 	vldr	d5, [pc, #684]	; a940 <__kernel_rem_pio2+0x760>
    a690:	ee047b45 	vmls.f64	d7, d4, d5
    a694:	eebd7bc7 	vcvt.s32.f64	s14, d7
    a698:	e28d3e23 	add	r3, sp, #560	; 0x230
    a69c:	e0833106 	add	r3, r3, r6, lsl #2
    a6a0:	ed037a14 	vstr	s14, [r3, #-80]	; 0xffffffb0
    a6a4:	e2866001 	add	r6, r6, #1, 0
    a6a8:	e28aa018 	add	sl, sl, #24, 0
    a6ac:	e28d3e23 	add	r3, sp, #560	; 0x230
    a6b0:	e0833106 	add	r3, r3, r6, lsl #2
    a6b4:	ed036a14 	vstr	s12, [r3, #-80]	; 0xffffffb0
    a6b8:	eaffffce 	b	a5f8 <__kernel_rem_pio2+0x418>
    a6bc:	eebd7bc7 	vcvt.s32.f64	s14, d7
    a6c0:	e28d3e23 	add	r3, sp, #560	; 0x230
    a6c4:	e0833106 	add	r3, r3, r6, lsl #2
    a6c8:	ed037a14 	vstr	s14, [r3, #-80]	; 0xffffffb0
    a6cc:	eaffffc9 	b	a5f8 <__kernel_rem_pio2+0x418>
    a6d0:	e28d2e23 	add	r2, sp, #560	; 0x230
    a6d4:	e0822103 	add	r2, r2, r3, lsl #2
    a6d8:	ed127a14 	vldr	s14, [r2, #-80]	; 0xffffffb0
    a6dc:	eeb87bc7 	vcvt.f64.s32	d7, s14
    a6e0:	ee277b06 	vmul.f64	d7, d7, d6
    a6e4:	e28d2e23 	add	r2, sp, #560	; 0x230
    a6e8:	e0822183 	add	r2, r2, r3, lsl #3
    a6ec:	ed027b8c 	vstr	d7, [r2, #-560]	; 0xfffffdd0
    a6f0:	ed9f7b94 	vldr	d7, [pc, #592]	; a948 <__kernel_rem_pio2+0x768>
    a6f4:	ee266b07 	vmul.f64	d6, d6, d7
    a6f8:	e2433001 	sub	r3, r3, #1, 0
    a6fc:	e3530000 	cmp	r3, #0, 0
    a700:	aafffff2 	bge	a6d0 <__kernel_rem_pio2+0x4f0>
    a704:	e1a01006 	mov	r1, r6
    a708:	ea000012 	b	a758 <__kernel_rem_pio2+0x578>
    a70c:	e59f2244 	ldr	r2, [pc, #580]	; a958 <__kernel_rem_pio2+0x778>
    a710:	e0822183 	add	r2, r2, r3, lsl #3
    a714:	ed925b46 	vldr	d5, [r2, #280]	; 0x118
    a718:	e0812003 	add	r2, r1, r3
    a71c:	e28d0e23 	add	r0, sp, #560	; 0x230
    a720:	e0802182 	add	r2, r0, r2, lsl #3
    a724:	ed126b8c 	vldr	d6, [r2, #-560]	; 0xfffffdd0
    a728:	ee057b06 	vmla.f64	d7, d5, d6
    a72c:	e2833001 	add	r3, r3, #1, 0
    a730:	e1530007 	cmp	r3, r7
    a734:	ca000002 	bgt	a744 <__kernel_rem_pio2+0x564>
    a738:	e0462001 	sub	r2, r6, r1
    a73c:	e1520003 	cmp	r2, r3
    a740:	aafffff1 	bge	a70c <__kernel_rem_pio2+0x52c>
    a744:	e0463001 	sub	r3, r6, r1
    a748:	e28d2e23 	add	r2, sp, #560	; 0x230
    a74c:	e0823183 	add	r3, r2, r3, lsl #3
    a750:	ed037b64 	vstr	d7, [r3, #-400]	; 0xfffffe70
    a754:	e2411001 	sub	r1, r1, #1, 0
    a758:	e3510000 	cmp	r1, #0, 0
    a75c:	ad9f7b7b 	vldrge	d7, [pc, #492]	; a950 <__kernel_rem_pio2+0x770>
    a760:	a3a03000 	movge	r3, #0, 0
    a764:	aafffff1 	bge	a730 <__kernel_rem_pio2+0x550>
    a768:	e59d3268 	ldr	r3, [sp, #616]	; 0x268
    a76c:	e3530002 	cmp	r3, #2, 0
    a770:	ca000004 	bgt	a788 <__kernel_rem_pio2+0x5a8>
    a774:	e3530000 	cmp	r3, #0, 0
    a778:	ca000025 	bgt	a814 <__kernel_rem_pio2+0x634>
    a77c:	1a000010 	bne	a7c4 <__kernel_rem_pio2+0x5e4>
    a780:	ed9f7b72 	vldr	d7, [pc, #456]	; a950 <__kernel_rem_pio2+0x770>
    a784:	ea000009 	b	a7b0 <__kernel_rem_pio2+0x5d0>
    a788:	e59d3268 	ldr	r3, [sp, #616]	; 0x268
    a78c:	e3530003 	cmp	r3, #3, 0
    a790:	1a00000b 	bne	a7c4 <__kernel_rem_pio2+0x5e4>
    a794:	e1a03006 	mov	r3, r6
    a798:	ea00003a 	b	a888 <__kernel_rem_pio2+0x6a8>
    a79c:	e28d3e23 	add	r3, sp, #560	; 0x230
    a7a0:	e0833186 	add	r3, r3, r6, lsl #3
    a7a4:	ed136b64 	vldr	d6, [r3, #-400]	; 0xfffffe70
    a7a8:	ee377b06 	vadd.f64	d7, d7, d6
    a7ac:	e2466001 	sub	r6, r6, #1, 0
    a7b0:	e3560000 	cmp	r6, #0, 0
    a7b4:	aafffff8 	bge	a79c <__kernel_rem_pio2+0x5bc>
    a7b8:	e3590000 	cmp	r9, #0, 0
    a7bc:	1eb17b47 	vnegne.f64	d7, d7
    a7c0:	ed8b7b00 	vstr	d7, [fp]
    a7c4:	ee193a10 	vmov	r3, s18
    a7c8:	e2030007 	and	r0, r3, #7, 0
    a7cc:	e28ddf8d 	add	sp, sp, #564	; 0x234
    a7d0:	ecbd8b04 	vpop	{d8-d9}
    a7d4:	e8bd8ff0 	pop	{r4, r5, r6, r7, r8, r9, sl, fp, pc}
    a7d8:	e28d2e23 	add	r2, sp, #560	; 0x230
    a7dc:	e0822183 	add	r2, r2, r3, lsl #3
    a7e0:	ed127b64 	vldr	d7, [r2, #-400]	; 0xfffffe70
    a7e4:	ee366b07 	vadd.f64	d6, d6, d7
    a7e8:	e2433001 	sub	r3, r3, #1, 0
    a7ec:	e3530000 	cmp	r3, #0, 0
    a7f0:	aafffff8 	bge	a7d8 <__kernel_rem_pio2+0x5f8>
    a7f4:	e3590000 	cmp	r9, #0, 0
    a7f8:	0a000008 	beq	a820 <__kernel_rem_pio2+0x640>
    a7fc:	eeb17b46 	vneg.f64	d7, d6
    a800:	ed8b7b00 	vstr	d7, [fp]
    a804:	ed9d7b28 	vldr	d7, [sp, #160]	; 0xa0
    a808:	ee377b46 	vsub.f64	d7, d7, d6
    a80c:	e3a03001 	mov	r3, #1, 0
    a810:	ea000009 	b	a83c <__kernel_rem_pio2+0x65c>
    a814:	e1a03006 	mov	r3, r6
    a818:	ed9f6b4c 	vldr	d6, [pc, #304]	; a950 <__kernel_rem_pio2+0x770>
    a81c:	eafffff2 	b	a7ec <__kernel_rem_pio2+0x60c>
    a820:	eeb07b46 	vmov.f64	d7, d6
    a824:	eafffff5 	b	a800 <__kernel_rem_pio2+0x620>
    a828:	e28d2e23 	add	r2, sp, #560	; 0x230
    a82c:	e0822183 	add	r2, r2, r3, lsl #3
    a830:	ed126b64 	vldr	d6, [r2, #-400]	; 0xfffffe70
    a834:	ee377b06 	vadd.f64	d7, d7, d6
    a838:	e2833001 	add	r3, r3, #1, 0
    a83c:	e1560003 	cmp	r6, r3
    a840:	aafffff8 	bge	a828 <__kernel_rem_pio2+0x648>
    a844:	e3590000 	cmp	r9, #0, 0
    a848:	1eb17b47 	vnegne.f64	d7, d7
    a84c:	ed8b7b02 	vstr	d7, [fp, #8]
    a850:	eaffffdb 	b	a7c4 <__kernel_rem_pio2+0x5e4>
    a854:	e2432001 	sub	r2, r3, #1, 0
    a858:	e28d1e23 	add	r1, sp, #560	; 0x230
    a85c:	e0811182 	add	r1, r1, r2, lsl #3
    a860:	ed116b64 	vldr	d6, [r1, #-400]	; 0xfffffe70
    a864:	e28d0e23 	add	r0, sp, #560	; 0x230
    a868:	e0803183 	add	r3, r0, r3, lsl #3
    a86c:	ed137b64 	vldr	d7, [r3, #-400]	; 0xfffffe70
    a870:	ee365b07 	vadd.f64	d5, d6, d7
    a874:	ee366b45 	vsub.f64	d6, d6, d5
    a878:	ee377b06 	vadd.f64	d7, d7, d6
    a87c:	ed037b64 	vstr	d7, [r3, #-400]	; 0xfffffe70
    a880:	ed015b64 	vstr	d5, [r1, #-400]	; 0xfffffe70
    a884:	e1a03002 	mov	r3, r2
    a888:	e3530000 	cmp	r3, #0, 0
    a88c:	cafffff0 	bgt	a854 <__kernel_rem_pio2+0x674>
    a890:	e1a03006 	mov	r3, r6
    a894:	ea00000c 	b	a8cc <__kernel_rem_pio2+0x6ec>
    a898:	e2432001 	sub	r2, r3, #1, 0
    a89c:	e28d1e23 	add	r1, sp, #560	; 0x230
    a8a0:	e0811182 	add	r1, r1, r2, lsl #3
    a8a4:	ed116b64 	vldr	d6, [r1, #-400]	; 0xfffffe70
    a8a8:	e28d0e23 	add	r0, sp, #560	; 0x230
    a8ac:	e0803183 	add	r3, r0, r3, lsl #3
    a8b0:	ed137b64 	vldr	d7, [r3, #-400]	; 0xfffffe70
    a8b4:	ee365b07 	vadd.f64	d5, d6, d7
    a8b8:	ee366b45 	vsub.f64	d6, d6, d5
    a8bc:	ee377b06 	vadd.f64	d7, d7, d6
    a8c0:	ed037b64 	vstr	d7, [r3, #-400]	; 0xfffffe70
    a8c4:	ed015b64 	vstr	d5, [r1, #-400]	; 0xfffffe70
    a8c8:	e1a03002 	mov	r3, r2
    a8cc:	e3530001 	cmp	r3, #1, 0
    a8d0:	cafffff0 	bgt	a898 <__kernel_rem_pio2+0x6b8>
    a8d4:	ed9f7b1d 	vldr	d7, [pc, #116]	; a950 <__kernel_rem_pio2+0x770>
    a8d8:	ea000004 	b	a8f0 <__kernel_rem_pio2+0x710>
    a8dc:	e28d3e23 	add	r3, sp, #560	; 0x230
    a8e0:	e0833186 	add	r3, r3, r6, lsl #3
    a8e4:	ed136b64 	vldr	d6, [r3, #-400]	; 0xfffffe70
    a8e8:	ee377b06 	vadd.f64	d7, d7, d6
    a8ec:	e2466001 	sub	r6, r6, #1, 0
    a8f0:	e3560001 	cmp	r6, #1, 0
    a8f4:	cafffff8 	bgt	a8dc <__kernel_rem_pio2+0x6fc>
    a8f8:	e3590000 	cmp	r9, #0, 0
    a8fc:	1a000005 	bne	a918 <__kernel_rem_pio2+0x738>
    a900:	e1cd2ad0 	ldrd	r2, [sp, #160]	; 0xa0
    a904:	e1cb20f0 	strd	r2, [fp]
    a908:	e1cd2ad8 	ldrd	r2, [sp, #168]	; 0xa8
    a90c:	e1cb20f8 	strd	r2, [fp, #8]
    a910:	ed8b7b04 	vstr	d7, [fp, #16]
    a914:	eaffffaa 	b	a7c4 <__kernel_rem_pio2+0x5e4>
    a918:	ed9d6b28 	vldr	d6, [sp, #160]	; 0xa0
    a91c:	eeb16b46 	vneg.f64	d6, d6
    a920:	ed8b6b00 	vstr	d6, [fp]
    a924:	ed9d6b2a 	vldr	d6, [sp, #168]	; 0xa8
    a928:	eeb16b46 	vneg.f64	d6, d6
    a92c:	ed8b6b02 	vstr	d6, [fp, #8]
    a930:	eeb17b47 	vneg.f64	d7, d7
    a934:	ed8b7b04 	vstr	d7, [fp, #16]
    a938:	eaffffa1 	b	a7c4 <__kernel_rem_pio2+0x5e4>
    a93c:	e320f000 	nop	{0}
    a940:	00000000 	.word	0x00000000
    a944:	41700000 	.word	0x41700000
    a948:	00000000 	.word	0x00000000
    a94c:	3e700000 	.word	0x3e700000
	...
    a958:	0000d2b0 	.word	0x0000d2b0
    a95c:	00000000 	.word	0x00000000

0000a960 <scalbn>:
    a960:	e92d4010 	push	{r4, lr}
    a964:	ed2d8b02 	vpush	{d8}
    a968:	e1a0c001 	mov	ip, r1
    a96c:	e1a03a41 	asr	r3, r1, #20
    a970:	e1a03a83 	lsl	r3, r3, #21
    a974:	e1a03aa3 	lsr	r3, r3, #21
    a978:	e3530000 	cmp	r3, #0, 0
    a97c:	1a00000f 	bne	a9c0 <scalbn+0x60>
    a980:	e1a0e000 	mov	lr, r0
    a984:	e3c1c102 	bic	ip, r1, #-2147483648	; 0x80000000
    a988:	e19c3000 	orrs	r3, ip, r0
    a98c:	0a000037 	beq	aa70 <scalbn+0x110>
    a990:	ed9f7b4a 	vldr	d7, [pc, #296]	; aac0 <scalbn+0x160>
    a994:	ec410b16 	vmov	d6, r0, r1
    a998:	ee267b07 	vmul.f64	d7, d6, d7
    a99c:	ec510b17 	vmov	r0, r1, d7
    a9a0:	e1a0c001 	mov	ip, r1
    a9a4:	e1a03a41 	asr	r3, r1, #20
    a9a8:	e1a03a83 	lsl	r3, r3, #21
    a9ac:	e1a03aa3 	lsr	r3, r3, #21
    a9b0:	e2433036 	sub	r3, r3, #54, 0	; 0x36
    a9b4:	e59fe124 	ldr	lr, [pc, #292]	; aae0 <scalbn+0x180>
    a9b8:	e152000e 	cmp	r2, lr
    a9bc:	ba000016 	blt	aa1c <scalbn+0xbc>
    a9c0:	e59fe11c 	ldr	lr, [pc, #284]	; aae4 <scalbn+0x184>
    a9c4:	e153000e 	cmp	r3, lr
    a9c8:	0a000018 	beq	aa30 <scalbn+0xd0>
    a9cc:	e0833002 	add	r3, r3, r2
    a9d0:	e59fe110 	ldr	lr, [pc, #272]	; aae8 <scalbn+0x188>
    a9d4:	e153000e 	cmp	r3, lr
    a9d8:	ca000018 	bgt	aa40 <scalbn+0xe0>
    a9dc:	e3530000 	cmp	r3, #0, 0
    a9e0:	ca00001f 	bgt	aa64 <scalbn+0x104>
    a9e4:	e3730035 	cmn	r3, #53, 0	; 0x35
    a9e8:	aa00002b 	bge	aa9c <scalbn+0x13c>
    a9ec:	e59f30f8 	ldr	r3, [pc, #248]	; aaec <scalbn+0x18c>
    a9f0:	e1520003 	cmp	r2, r3
    a9f4:	da00001f 	ble	aa78 <scalbn+0x118>
    a9f8:	ed9f8b32 	vldr	d8, [pc, #200]	; aac8 <scalbn+0x168>
    a9fc:	e1a02000 	mov	r2, r0
    aa00:	e1a03001 	mov	r3, r1
    aa04:	ec510b18 	vmov	r0, r1, d8
    aa08:	eb000098 	bl	ac70 <copysign>
    aa0c:	ec410b17 	vmov	d7, r0, r1
    aa10:	ee277b08 	vmul.f64	d7, d7, d8
    aa14:	ec510b17 	vmov	r0, r1, d7
    aa18:	ea000014 	b	aa70 <scalbn+0x110>
    aa1c:	ed9f7b2b 	vldr	d7, [pc, #172]	; aad0 <scalbn+0x170>
    aa20:	ec410b16 	vmov	d6, r0, r1
    aa24:	ee267b07 	vmul.f64	d7, d6, d7
    aa28:	ec510b17 	vmov	r0, r1, d7
    aa2c:	ea00000f 	b	aa70 <scalbn+0x110>
    aa30:	ec410b17 	vmov	d7, r0, r1
    aa34:	ee377b07 	vadd.f64	d7, d7, d7
    aa38:	ec510b17 	vmov	r0, r1, d7
    aa3c:	ea00000b 	b	aa70 <scalbn+0x110>
    aa40:	ed9f8b20 	vldr	d8, [pc, #128]	; aac8 <scalbn+0x168>
    aa44:	e1a02000 	mov	r2, r0
    aa48:	e1a03001 	mov	r3, r1
    aa4c:	ec510b18 	vmov	r0, r1, d8
    aa50:	eb000086 	bl	ac70 <copysign>
    aa54:	ec410b17 	vmov	d7, r0, r1
    aa58:	ee277b08 	vmul.f64	d7, d7, d8
    aa5c:	ec510b17 	vmov	r0, r1, d7
    aa60:	ea000002 	b	aa70 <scalbn+0x110>
    aa64:	e3ccc47f 	bic	ip, ip, #2130706432	; 0x7f000000
    aa68:	e3ccc60f 	bic	ip, ip, #15728640	; 0xf00000
    aa6c:	e18c1a03 	orr	r1, ip, r3, lsl #20
    aa70:	ecbd8b02 	vpop	{d8}
    aa74:	e8bd8010 	pop	{r4, pc}
    aa78:	ed9f8b14 	vldr	d8, [pc, #80]	; aad0 <scalbn+0x170>
    aa7c:	e1a02000 	mov	r2, r0
    aa80:	e1a03001 	mov	r3, r1
    aa84:	ec510b18 	vmov	r0, r1, d8
    aa88:	eb000078 	bl	ac70 <copysign>
    aa8c:	ec410b17 	vmov	d7, r0, r1
    aa90:	ee277b08 	vmul.f64	d7, d7, d8
    aa94:	ec510b17 	vmov	r0, r1, d7
    aa98:	eafffff4 	b	aa70 <scalbn+0x110>
    aa9c:	e2833036 	add	r3, r3, #54, 0	; 0x36
    aaa0:	e3ccc47f 	bic	ip, ip, #2130706432	; 0x7f000000
    aaa4:	e3ccc60f 	bic	ip, ip, #15728640	; 0xf00000
    aaa8:	e18c1a03 	orr	r1, ip, r3, lsl #20
    aaac:	ec410b17 	vmov	d7, r0, r1
    aab0:	ed9f6b08 	vldr	d6, [pc, #32]	; aad8 <scalbn+0x178>
    aab4:	ee277b06 	vmul.f64	d7, d7, d6
    aab8:	ec510b17 	vmov	r0, r1, d7
    aabc:	eaffffeb 	b	aa70 <scalbn+0x110>
    aac0:	00000000 	.word	0x00000000
    aac4:	43500000 	.word	0x43500000
    aac8:	8800759c 	.word	0x8800759c
    aacc:	7e37e43c 	.word	0x7e37e43c
    aad0:	c2f8f359 	.word	0xc2f8f359
    aad4:	01a56e1f 	.word	0x01a56e1f
    aad8:	00000000 	.word	0x00000000
    aadc:	3c900000 	.word	0x3c900000
    aae0:	ffff3cb0 	.word	0xffff3cb0
    aae4:	000007ff 	.word	0x000007ff
    aae8:	000007fe 	.word	0x000007fe
    aaec:	0000c350 	.word	0x0000c350

0000aaf0 <floor>:
    aaf0:	e92d4010 	push	{r4, lr}
    aaf4:	e24dd008 	sub	sp, sp, #8, 0
    aaf8:	e1cd00f0 	strd	r0, [sp]
    aafc:	e59d1004 	ldr	r1, [sp, #4]
    ab00:	e1a0e001 	mov	lr, r1
    ab04:	e59d0000 	ldr	r0, [sp]
    ab08:	e1a0c000 	mov	ip, r0
    ab0c:	e1a03a41 	asr	r3, r1, #20
    ab10:	e1a03a83 	lsl	r3, r3, #21
    ab14:	e1a03aa3 	lsr	r3, r3, #21
    ab18:	e2432fff 	sub	r2, r3, #1020	; 0x3fc
    ab1c:	e2422003 	sub	r2, r2, #3, 0
    ab20:	e3520013 	cmp	r2, #19, 0
    ab24:	ca000026 	bgt	abc4 <floor+0xd4>
    ab28:	e3520000 	cmp	r2, #0, 0
    ab2c:	ba000012 	blt	ab7c <floor+0x8c>
    ab30:	e59f3130 	ldr	r3, [pc, #304]	; ac68 <floor+0x178>
    ab34:	e1a03253 	asr	r3, r3, r2
    ab38:	e0014003 	and	r4, r1, r3
    ab3c:	e1940000 	orrs	r0, r4, r0
    ab40:	0a000042 	beq	ac50 <floor+0x160>
    ab44:	ed9f7b45 	vldr	d7, [pc, #276]	; ac60 <floor+0x170>
    ab48:	ed9d6b00 	vldr	d6, [sp]
    ab4c:	ee367b07 	vadd.f64	d7, d6, d7
    ab50:	eeb57bc0 	vcmpe.f64	d7, #0.0
    ab54:	eef1fa10 	vmrs	APSR_nzcv, fpscr
    ab58:	da000003 	ble	ab6c <floor+0x7c>
    ab5c:	e3510000 	cmp	r1, #0, 0
    ab60:	ba000014 	blt	abb8 <floor+0xc8>
    ab64:	e1cee003 	bic	lr, lr, r3
    ab68:	e3a0c000 	mov	ip, #0, 0
    ab6c:	e1a0100e 	mov	r1, lr
    ab70:	e1a0000c 	mov	r0, ip
    ab74:	e28dd008 	add	sp, sp, #8, 0
    ab78:	e8bd8010 	pop	{r4, pc}
    ab7c:	ed9f7b37 	vldr	d7, [pc, #220]	; ac60 <floor+0x170>
    ab80:	ed9d6b00 	vldr	d6, [sp]
    ab84:	ee367b07 	vadd.f64	d7, d6, d7
    ab88:	eeb57bc0 	vcmpe.f64	d7, #0.0
    ab8c:	eef1fa10 	vmrs	APSR_nzcv, fpscr
    ab90:	dafffff5 	ble	ab6c <floor+0x7c>
    ab94:	e3510000 	cmp	r1, #0, 0
    ab98:	a3a0c000 	movge	ip, #0, 0
    ab9c:	a1a0e00c 	movge	lr, ip
    aba0:	aafffff1 	bge	ab6c <floor+0x7c>
    aba4:	e3c11102 	bic	r1, r1, #-2147483648	; 0x80000000
    aba8:	e1913000 	orrs	r3, r1, r0
    abac:	13a0c000 	movne	ip, #0, 0
    abb0:	159fe0b4 	ldrne	lr, [pc, #180]	; ac6c <floor+0x17c>
    abb4:	eaffffec 	b	ab6c <floor+0x7c>
    abb8:	e3a0e601 	mov	lr, #1048576	; 0x100000
    abbc:	e081e25e 	add	lr, r1, lr, asr r2
    abc0:	eaffffe7 	b	ab64 <floor+0x74>
    abc4:	e3520033 	cmp	r2, #51, 0	; 0x33
    abc8:	da000006 	ble	abe8 <floor+0xf8>
    abcc:	e3520b01 	cmp	r2, #1024	; 0x400
    abd0:	11cd00d0 	ldrdne	r0, [sp]
    abd4:	1affffe6 	bne	ab74 <floor+0x84>
    abd8:	ed9d7b00 	vldr	d7, [sp]
    abdc:	ee377b07 	vadd.f64	d7, d7, d7
    abe0:	ec510b17 	vmov	r0, r1, d7
    abe4:	eaffffe2 	b	ab74 <floor+0x84>
    abe8:	e2433e41 	sub	r3, r3, #1040	; 0x410
    abec:	e2433003 	sub	r3, r3, #3, 0
    abf0:	e3e04000 	mvn	r4, #0, 0
    abf4:	e1a03334 	lsr	r3, r4, r3
    abf8:	e1130000 	tst	r3, r0
    abfc:	0a000015 	beq	ac58 <floor+0x168>
    ac00:	ed9f7b16 	vldr	d7, [pc, #88]	; ac60 <floor+0x170>
    ac04:	ed9d6b00 	vldr	d6, [sp]
    ac08:	ee367b07 	vadd.f64	d7, d6, d7
    ac0c:	eeb57bc0 	vcmpe.f64	d7, #0.0
    ac10:	eef1fa10 	vmrs	APSR_nzcv, fpscr
    ac14:	daffffd4 	ble	ab6c <floor+0x7c>
    ac18:	e3510000 	cmp	r1, #0, 0
    ac1c:	ba000001 	blt	ac28 <floor+0x138>
    ac20:	e1ccc003 	bic	ip, ip, r3
    ac24:	eaffffd0 	b	ab6c <floor+0x7c>
    ac28:	e3520014 	cmp	r2, #20, 0
    ac2c:	0a000005 	beq	ac48 <floor+0x158>
    ac30:	e2622034 	rsb	r2, r2, #52, 0	; 0x34
    ac34:	e3a0c001 	mov	ip, #1, 0
    ac38:	e080c21c 	add	ip, r0, ip, lsl r2
    ac3c:	e15c0000 	cmp	ip, r0
    ac40:	3281e001 	addcc	lr, r1, #1, 0
    ac44:	eafffff5 	b	ac20 <floor+0x130>
    ac48:	e281e001 	add	lr, r1, #1, 0
    ac4c:	eafffff3 	b	ac20 <floor+0x130>
    ac50:	e1cd00d0 	ldrd	r0, [sp]
    ac54:	eaffffc6 	b	ab74 <floor+0x84>
    ac58:	e1cd00d0 	ldrd	r0, [sp]
    ac5c:	eaffffc4 	b	ab74 <floor+0x84>
    ac60:	8800759c 	.word	0x8800759c
    ac64:	7e37e43c 	.word	0x7e37e43c
    ac68:	000fffff 	.word	0x000fffff
    ac6c:	bff00000 	.word	0xbff00000

0000ac70 <copysign>:
    ac70:	e92d0030 	push	{r4, r5}
    ac74:	e3c1c102 	bic	ip, r1, #-2147483648	; 0x80000000
    ac78:	e2033102 	and	r3, r3, #-2147483648	; 0x80000000
    ac7c:	e18c1003 	orr	r1, ip, r3
    ac80:	e8bd0030 	pop	{r4, r5}
    ac84:	e12fff1e 	bx	lr

0000ac88 <memcpy256>:
    ac88:	e92d40f0 	push	{r4, r5, r6, r7, lr}
    ac8c:	e24dd00c 	sub	sp, sp, #12, 0
    ac90:	e212401f 	ands	r4, r2, #31, 0
    ac94:	01a06000 	moveq	r6, r0
    ac98:	01a07001 	moveq	r7, r1
    ac9c:	01a052a2 	lsreq	r5, r2, #5
    aca0:	0a00000f 	beq	ace4 <memcpy256+0x5c>
    aca4:	e3a03020 	mov	r3, #32, 0
    aca8:	e58d3004 	str	r3, [sp, #4]
    acac:	e58d2000 	str	r2, [sp]
    acb0:	e3a0300f 	mov	r3, #15, 0
    acb4:	e59f2038 	ldr	r2, [pc, #56]	; acf4 <memcpy256+0x6c>
    acb8:	e59f1038 	ldr	r1, [pc, #56]	; acf8 <memcpy256+0x70>
    acbc:	e59f0038 	ldr	r0, [pc, #56]	; acfc <memcpy256+0x74>
    acc0:	eb0000c8 	bl	afe8 <printk>
    acc4:	eb000355 	bl	ba20 <clean_reboot>
    acc8:	e086c284 	add	ip, r6, r4, lsl #5
    accc:	e087e284 	add	lr, r7, r4, lsl #5
    acd0:	e8be000f 	ldm	lr!, {r0, r1, r2, r3}
    acd4:	e8ac000f 	stmia	ip!, {r0, r1, r2, r3}
    acd8:	e89e000f 	ldm	lr, {r0, r1, r2, r3}
    acdc:	e88c000f 	stm	ip, {r0, r1, r2, r3}
    ace0:	e2844001 	add	r4, r4, #1, 0
    ace4:	e1540005 	cmp	r4, r5
    ace8:	3afffff6 	bcc	acc8 <memcpy256+0x40>
    acec:	e28dd00c 	add	sp, sp, #12, 0
    acf0:	e8bd80f0 	pop	{r4, r5, r6, r7, pc}
    acf4:	0000d454 	.word	0x0000d454
    acf8:	0000d408 	.word	0x0000d408
    acfc:	0000d418 	.word	0x0000d418

0000ad00 <memcpy>:
    ad00:	e3100007 	tst	r0, #7, 0
    ad04:	1a00000f 	bne	ad48 <memcpy+0x48>
    ad08:	e3110007 	tst	r1, #7, 0
    ad0c:	1a00000d 	bne	ad48 <memcpy+0x48>
    ad10:	e2123007 	ands	r3, r2, #7, 0
    ad14:	1a00000b 	bne	ad48 <memcpy+0x48>
    ad18:	e1a021a2 	lsr	r2, r2, #3
    ad1c:	e1530002 	cmp	r3, r2
    ad20:	212fff1e 	bxcs	lr
    ad24:	e92d0030 	push	{r4, r5}
    ad28:	e1a0c183 	lsl	ip, r3, #3
    ad2c:	e18140dc 	ldrd	r4, [r1, ip]
    ad30:	e18040fc 	strd	r4, [r0, ip]
    ad34:	e2833001 	add	r3, r3, #1, 0
    ad38:	e1530002 	cmp	r3, r2
    ad3c:	3afffff9 	bcc	ad28 <memcpy+0x28>
    ad40:	e8bd0030 	pop	{r4, r5}
    ad44:	e12fff1e 	bx	lr
    ad48:	e2103003 	ands	r3, r0, #3, 0
    ad4c:	1a000011 	bne	ad98 <memcpy+0x98>
    ad50:	e211c003 	ands	ip, r1, #3, 0
    ad54:	1a00000c 	bne	ad8c <memcpy+0x8c>
    ad58:	e2123003 	ands	r3, r2, #3, 0
    ad5c:	1a00000f 	bne	ada0 <memcpy+0xa0>
    ad60:	e1a02122 	lsr	r2, r2, #2
    ad64:	ea000002 	b	ad74 <memcpy+0x74>
    ad68:	e791c103 	ldr	ip, [r1, r3, lsl #2]
    ad6c:	e780c103 	str	ip, [r0, r3, lsl #2]
    ad70:	e2833001 	add	r3, r3, #1, 0
    ad74:	e1530002 	cmp	r3, r2
    ad78:	3afffffa 	bcc	ad68 <memcpy+0x68>
    ad7c:	e12fff1e 	bx	lr
    ad80:	e7d1c003 	ldrb	ip, [r1, r3]
    ad84:	e7c0c003 	strb	ip, [r0, r3]
    ad88:	e2833001 	add	r3, r3, #1, 0
    ad8c:	e1530002 	cmp	r3, r2
    ad90:	3afffffa 	bcc	ad80 <memcpy+0x80>
    ad94:	e12fff1e 	bx	lr
    ad98:	e3a03000 	mov	r3, #0, 0
    ad9c:	eafffffa 	b	ad8c <memcpy+0x8c>
    ada0:	e1a0300c 	mov	r3, ip
    ada4:	eafffff8 	b	ad8c <memcpy+0x8c>

0000ada8 <memcpy_end>:
    ada8:	e12fff1e 	bx	lr

0000adac <pi_random_seed>:
    adac:	e92d4030 	push	{r4, r5, lr}
    adb0:	e24dd00c 	sub	sp, sp, #12, 0
    adb4:	e1a04000 	mov	r4, r0
    adb8:	e59f5090 	ldr	r5, [pc, #144]	; ae50 <pi_random_seed+0xa4>
    adbc:	e3a0201c 	mov	r2, #28, 0
    adc0:	e3a01000 	mov	r1, #0, 0
    adc4:	e1a00005 	mov	r0, r5
    adc8:	eb000469 	bl	bf74 <memset>
    adcc:	e1a03005 	mov	r3, r5
    add0:	e3a02080 	mov	r2, #128, 0	; 0x80
    add4:	e285101c 	add	r1, r5, #28, 0
    add8:	e1a00004 	mov	r0, r4
    addc:	eb000291 	bl	b828 <initstate_r>
    ade0:	e3500000 	cmp	r0, #0, 0
    ade4:	1a000009 	bne	ae10 <pi_random_seed+0x64>
    ade8:	e59f1060 	ldr	r1, [pc, #96]	; ae50 <pi_random_seed+0xa4>
    adec:	e1a00004 	mov	r0, r4
    adf0:	eb00024e 	bl	b730 <srandom_r>
    adf4:	e3500000 	cmp	r0, #0, 0
    adf8:	1a00000c 	bne	ae30 <pi_random_seed+0x84>
    adfc:	e59f304c 	ldr	r3, [pc, #76]	; ae50 <pi_random_seed+0xa4>
    ae00:	e3a02001 	mov	r2, #1, 0
    ae04:	e583209c 	str	r2, [r3, #156]	; 0x9c
    ae08:	e28dd00c 	add	sp, sp, #12, 0
    ae0c:	e8bd8030 	pop	{r4, r5, pc}
    ae10:	e59f303c 	ldr	r3, [pc, #60]	; ae54 <pi_random_seed+0xa8>
    ae14:	e58d3000 	str	r3, [sp]
    ae18:	e3a03011 	mov	r3, #17, 0
    ae1c:	e59f2034 	ldr	r2, [pc, #52]	; ae58 <pi_random_seed+0xac>
    ae20:	e59f1034 	ldr	r1, [pc, #52]	; ae5c <pi_random_seed+0xb0>
    ae24:	e59f0034 	ldr	r0, [pc, #52]	; ae60 <pi_random_seed+0xb4>
    ae28:	eb00006e 	bl	afe8 <printk>
    ae2c:	eb0002fb 	bl	ba20 <clean_reboot>
    ae30:	e59f301c 	ldr	r3, [pc, #28]	; ae54 <pi_random_seed+0xa8>
    ae34:	e58d3000 	str	r3, [sp]
    ae38:	e3a03013 	mov	r3, #19, 0
    ae3c:	e59f2014 	ldr	r2, [pc, #20]	; ae58 <pi_random_seed+0xac>
    ae40:	e59f1014 	ldr	r1, [pc, #20]	; ae5c <pi_random_seed+0xb0>
    ae44:	e59f0014 	ldr	r0, [pc, #20]	; ae60 <pi_random_seed+0xb4>
    ae48:	eb000066 	bl	afe8 <printk>
    ae4c:	eb0002f3 	bl	ba20 <clean_reboot>
    ae50:	0000f6f0 	.word	0x0000f6f0
    ae54:	0000d474 	.word	0x0000d474
    ae58:	0000d498 	.word	0x0000d498
    ae5c:	0000d460 	.word	0x0000d460
    ae60:	0000d000 	.word	0x0000d000

0000ae64 <pi_random>:
    ae64:	e52de004 	push	{lr}		; (str lr, [sp, #-4]!)
    ae68:	e24dd014 	sub	sp, sp, #20, 0
    ae6c:	e59f305c 	ldr	r3, [pc, #92]	; aed0 <pi_random+0x6c>
    ae70:	e593309c 	ldr	r3, [r3, #156]	; 0x9c
    ae74:	e3530000 	cmp	r3, #0, 0
    ae78:	0a000007 	beq	ae9c <pi_random+0x38>
    ae7c:	e28d100c 	add	r1, sp, #12, 0
    ae80:	e59f0048 	ldr	r0, [pc, #72]	; aed0 <pi_random+0x6c>
    ae84:	eb0001fb 	bl	b678 <random_r>
    ae88:	e3500000 	cmp	r0, #0, 0
    ae8c:	1a000007 	bne	aeb0 <pi_random+0x4c>
    ae90:	e59d000c 	ldr	r0, [sp, #12]
    ae94:	e28dd014 	add	sp, sp, #20, 0
    ae98:	e49df004 	pop	{pc}		; (ldr pc, [sp], #4)
    ae9c:	eb000010 	bl	aee4 <pi_random_init>
    aea0:	e59f3028 	ldr	r3, [pc, #40]	; aed0 <pi_random+0x6c>
    aea4:	e3a02001 	mov	r2, #1, 0
    aea8:	e583209c 	str	r2, [r3, #156]	; 0x9c
    aeac:	eafffff2 	b	ae7c <pi_random+0x18>
    aeb0:	e59f301c 	ldr	r3, [pc, #28]	; aed4 <pi_random+0x70>
    aeb4:	e58d3000 	str	r3, [sp]
    aeb8:	e3a0302b 	mov	r3, #43, 0	; 0x2b
    aebc:	e59f2014 	ldr	r2, [pc, #20]	; aed8 <pi_random+0x74>
    aec0:	e59f1014 	ldr	r1, [pc, #20]	; aedc <pi_random+0x78>
    aec4:	e59f0014 	ldr	r0, [pc, #20]	; aee0 <pi_random+0x7c>
    aec8:	eb000046 	bl	afe8 <printk>
    aecc:	eb0002d3 	bl	ba20 <clean_reboot>
    aed0:	0000f6f0 	.word	0x0000f6f0
    aed4:	0000d474 	.word	0x0000d474
    aed8:	0000d4a8 	.word	0x0000d4a8
    aedc:	0000d460 	.word	0x0000d460
    aee0:	0000d000 	.word	0x0000d000

0000aee4 <pi_random_init>:
    aee4:	e52de004 	push	{lr}		; (str lr, [sp, #-4]!)
    aee8:	e24dd00c 	sub	sp, sp, #12, 0
    aeec:	e59f3068 	ldr	r3, [pc, #104]	; af5c <pi_random_init+0x78>
    aef0:	e593309c 	ldr	r3, [r3, #156]	; 0x9c
    aef4:	e3530000 	cmp	r3, #0, 0
    aef8:	1a000007 	bne	af1c <pi_random_init+0x38>
    aefc:	e3a00000 	mov	r0, #0, 0
    af00:	ebffffa9 	bl	adac <pi_random_seed>
    af04:	ebffffd6 	bl	ae64 <pi_random>
    af08:	e59f3050 	ldr	r3, [pc, #80]	; af60 <pi_random_init+0x7c>
    af0c:	e1500003 	cmp	r0, r3
    af10:	1a000009 	bne	af3c <pi_random_init+0x58>
    af14:	e28dd00c 	add	sp, sp, #12, 0
    af18:	e49df004 	pop	{pc}		; (ldr pc, [sp], #4)
    af1c:	e59f3040 	ldr	r3, [pc, #64]	; af64 <pi_random_init+0x80>
    af20:	e58d3000 	str	r3, [sp]
    af24:	e3a03019 	mov	r3, #25, 0
    af28:	e59f2038 	ldr	r2, [pc, #56]	; af68 <pi_random_init+0x84>
    af2c:	e59f1038 	ldr	r1, [pc, #56]	; af6c <pi_random_init+0x88>
    af30:	e59f0038 	ldr	r0, [pc, #56]	; af70 <pi_random_init+0x8c>
    af34:	eb00002b 	bl	afe8 <printk>
    af38:	eb0002b8 	bl	ba20 <clean_reboot>
    af3c:	e59f3030 	ldr	r3, [pc, #48]	; af74 <pi_random_init+0x90>
    af40:	e58d3000 	str	r3, [sp]
    af44:	e3a0301d 	mov	r3, #29, 0
    af48:	e59f2018 	ldr	r2, [pc, #24]	; af68 <pi_random_init+0x84>
    af4c:	e59f1018 	ldr	r1, [pc, #24]	; af6c <pi_random_init+0x88>
    af50:	e59f0018 	ldr	r0, [pc, #24]	; af70 <pi_random_init+0x8c>
    af54:	eb000023 	bl	afe8 <printk>
    af58:	eb0002b0 	bl	ba20 <clean_reboot>
    af5c:	0000f6f0 	.word	0x0000f6f0
    af60:	6b8b4567 	.word	0x6b8b4567
    af64:	0000d478 	.word	0x0000d478
    af68:	0000d4b4 	.word	0x0000d4b4
    af6c:	0000d460 	.word	0x0000d460
    af70:	0000d000 	.word	0x0000d000
    af74:	0000d488 	.word	0x0000d488

0000af78 <trunc>:
    af78:	eefd7bc0 	vcvt.s32.f64	s15, d0
    af7c:	ee170a90 	vmov	r0, s15
    af80:	e12fff1e 	bx	lr

0000af84 <fp_get_frac>:
    af84:	e92d4010 	push	{r4, lr}
    af88:	eeb50bc0 	vcmpe.f64	d0, #0.0
    af8c:	eef1fa10 	vmrs	APSR_nzcv, fpscr
    af90:	4a00000b 	bmi	afc4 <fp_get_frac+0x40>
    af94:	ed9f7b0d 	vldr	d7, [pc, #52]	; afd0 <fp_get_frac+0x4c>
    af98:	ee200b07 	vmul.f64	d0, d0, d7
    af9c:	ebfffff5 	bl	af78 <trunc>
    afa0:	e59f3030 	ldr	r3, [pc, #48]	; afd8 <fp_get_frac+0x54>
    afa4:	e0c23093 	smull	r3, r2, r3, r0
    afa8:	e1a03fc0 	asr	r3, r0, #31
    afac:	e0633942 	rsb	r3, r3, r2, asr #18
    afb0:	e0632283 	rsb	r2, r3, r3, lsl #5
    afb4:	e0622302 	rsb	r2, r2, r2, lsl #6
    afb8:	e0833182 	add	r3, r3, r2, lsl #3
    afbc:	e0400303 	sub	r0, r0, r3, lsl #6
    afc0:	e8bd8010 	pop	{r4, pc}
    afc4:	eeb10b40 	vneg.f64	d0, d0
    afc8:	eafffff1 	b	af94 <fp_get_frac+0x10>
    afcc:	e320f000 	nop	{0}
    afd0:	00000000 	.word	0x00000000
    afd4:	412e8480 	.word	0x412e8480
    afd8:	431bde83 	.word	0x431bde83

0000afdc <fp_get_integral>:
    afdc:	e92d4010 	push	{r4, lr}
    afe0:	ebffffe4 	bl	af78 <trunc>
    afe4:	e8bd8010 	pop	{r4, pc}

0000afe8 <printk>:
    afe8:	e92d000f 	push	{r0, r1, r2, r3}
    afec:	e52de004 	push	{lr}		; (str lr, [sp, #-4]!)
    aff0:	e24dd00c 	sub	sp, sp, #12, 0
    aff4:	e28d1014 	add	r1, sp, #20, 0
    aff8:	e58d1004 	str	r1, [sp, #4]
    affc:	e59d0010 	ldr	r0, [sp, #16]
    b000:	eb000084 	bl	b218 <vprintk>
    b004:	e28dd00c 	add	sp, sp, #12, 0
    b008:	e49de004 	pop	{lr}		; (ldr lr, [sp], #4)
    b00c:	e28dd010 	add	sp, sp, #16, 0
    b010:	e12fff1e 	bx	lr

0000b014 <emit_val>:
    b014:	e92d4030 	push	{r4, r5, lr}
    b018:	e24dd034 	sub	sp, sp, #52, 0	; 0x34
    b01c:	e1a05002 	mov	r5, r2
    b020:	e350000a 	cmp	r0, #10, 0
    b024:	0a000014 	beq	b07c <emit_val+0x68>
    b028:	e3500010 	cmp	r0, #16, 0
    b02c:	0a000022 	beq	b0bc <emit_val+0xa8>
    b030:	e3500002 	cmp	r0, #2, 0
    b034:	0a000006 	beq	b054 <emit_val+0x40>
    b038:	e58d0000 	str	r0, [sp]
    b03c:	e3a0301c 	mov	r3, #28, 0
    b040:	e59f20e8 	ldr	r2, [pc, #232]	; b130 <emit_val+0x11c>
    b044:	e59f10e8 	ldr	r1, [pc, #232]	; b134 <emit_val+0x120>
    b048:	e59f00e8 	ldr	r0, [pc, #232]	; b138 <emit_val+0x124>
    b04c:	ebffffe5 	bl	afe8 <printk>
    b050:	eb000272 	bl	ba20 <clean_reboot>
    b054:	e28d400c 	add	r4, sp, #12, 0
    b058:	e2012001 	and	r2, r1, #1, 0
    b05c:	e59f00d8 	ldr	r0, [pc, #216]	; b13c <emit_val+0x128>
    b060:	e7d02002 	ldrb	r2, [r0, r2]
    b064:	e5c42000 	strb	r2, [r4]
    b068:	e2844001 	add	r4, r4, #1, 0
    b06c:	e3510001 	cmp	r1, #1, 0
    b070:	e1a010a1 	lsr	r1, r1, #1
    b074:	8afffff7 	bhi	b058 <emit_val+0x44>
    b078:	ea00001e 	b	b0f8 <emit_val+0xe4>
    b07c:	e28d400c 	add	r4, sp, #12, 0
    b080:	e59f30b8 	ldr	r3, [pc, #184]	; b140 <emit_val+0x12c>
    b084:	e0832193 	umull	r2, r3, r3, r1
    b088:	e1a031a3 	lsr	r3, r3, #3
    b08c:	e1a00003 	mov	r0, r3
    b090:	e0833103 	add	r3, r3, r3, lsl #2
    b094:	e0413083 	sub	r3, r1, r3, lsl #1
    b098:	e59fc0a4 	ldr	ip, [pc, #164]	; b144 <emit_val+0x130>
    b09c:	e7dcc003 	ldrb	ip, [ip, r3]
    b0a0:	e5c4c000 	strb	ip, [r4]
    b0a4:	e2844001 	add	r4, r4, #1, 0
    b0a8:	e1a03001 	mov	r3, r1
    b0ac:	e1a01000 	mov	r1, r0
    b0b0:	e3530009 	cmp	r3, #9, 0
    b0b4:	8afffff1 	bhi	b080 <emit_val+0x6c>
    b0b8:	ea00000e 	b	b0f8 <emit_val+0xe4>
    b0bc:	e28d400c 	add	r4, sp, #12, 0
    b0c0:	e201200f 	and	r2, r1, #15, 0
    b0c4:	e59f007c 	ldr	r0, [pc, #124]	; b148 <emit_val+0x134>
    b0c8:	e7d02002 	ldrb	r2, [r0, r2]
    b0cc:	e5c42000 	strb	r2, [r4]
    b0d0:	e2844001 	add	r4, r4, #1, 0
    b0d4:	e351000f 	cmp	r1, #15, 0
    b0d8:	e1a01221 	lsr	r1, r1, #4
    b0dc:	8afffff7 	bhi	b0c0 <emit_val+0xac>
    b0e0:	ea000004 	b	b0f8 <emit_val+0xe4>
    b0e4:	e59f3060 	ldr	r3, [pc, #96]	; b14c <emit_val+0x138>
    b0e8:	e5933000 	ldr	r3, [r3]
    b0ec:	e3a00030 	mov	r0, #48, 0	; 0x30
    b0f0:	e12fff33 	blx	r3
    b0f4:	e2455001 	sub	r5, r5, #1, 0
    b0f8:	e28d300c 	add	r3, sp, #12, 0
    b0fc:	e0443003 	sub	r3, r4, r3
    b100:	e1530005 	cmp	r3, r5
    b104:	3afffff6 	bcc	b0e4 <emit_val+0xd0>
    b108:	ea000003 	b	b11c <emit_val+0x108>
    b10c:	e59f3038 	ldr	r3, [pc, #56]	; b14c <emit_val+0x138>
    b110:	e5933000 	ldr	r3, [r3]
    b114:	e5740001 	ldrb	r0, [r4, #-1]!
    b118:	e12fff33 	blx	r3
    b11c:	e28d300c 	add	r3, sp, #12, 0
    b120:	e1540003 	cmp	r4, r3
    b124:	8afffff8 	bhi	b10c <emit_val+0xf8>
    b128:	e28dd034 	add	sp, sp, #52, 0	; 0x34
    b12c:	e8bd8030 	pop	{r4, r5, pc}
    b130:	0000d5b4 	.word	0x0000d5b4
    b134:	0000d4c4 	.word	0x0000d4c4
    b138:	0000d4d4 	.word	0x0000d4d4
    b13c:	0000d4f8 	.word	0x0000d4f8
    b140:	cccccccd 	.word	0xcccccccd
    b144:	0000d4fc 	.word	0x0000d4fc
    b148:	0000d508 	.word	0x0000d508
    b14c:	0000d664 	.word	0x0000d664

0000b150 <__emit_float>:
    b150:	e92d4070 	push	{r4, r5, r6, lr}
    b154:	ed2d8b02 	vpush	{d8}
    b158:	eeb08b40 	vmov.f64	d8, d0
    b15c:	eeb50bc0 	vcmpe.f64	d0, #0.0
    b160:	eef1fa10 	vmrs	APSR_nzcv, fpscr
    b164:	4a00001c 	bmi	b1dc <__emit_float+0x8c>
    b168:	eeb00b48 	vmov.f64	d0, d8
    b16c:	ebffff9a 	bl	afdc <fp_get_integral>
    b170:	e1a01000 	mov	r1, r0
    b174:	e3a02000 	mov	r2, #0, 0
    b178:	e3a0000a 	mov	r0, #10, 0
    b17c:	ebffffa4 	bl	b014 <emit_val>
    b180:	e59f3084 	ldr	r3, [pc, #132]	; b20c <__emit_float+0xbc>
    b184:	e5933000 	ldr	r3, [r3]
    b188:	e3a0002e 	mov	r0, #46, 0	; 0x2e
    b18c:	e12fff33 	blx	r3
    b190:	eeb00b48 	vmov.f64	d0, d8
    b194:	ebffff7a 	bl	af84 <fp_get_frac>
    b198:	e1a05000 	mov	r5, r0
    b19c:	e59f406c 	ldr	r4, [pc, #108]	; b210 <__emit_float+0xc0>
    b1a0:	e1540005 	cmp	r4, r5
    b1a4:	93a03000 	movls	r3, #0, 0
    b1a8:	83a03001 	movhi	r3, #1, 0
    b1ac:	e3550000 	cmp	r5, #0, 0
    b1b0:	03a03000 	moveq	r3, #0, 0
    b1b4:	e3530000 	cmp	r3, #0, 0
    b1b8:	0a00000d 	beq	b1f4 <__emit_float+0xa4>
    b1bc:	e59f3048 	ldr	r3, [pc, #72]	; b20c <__emit_float+0xbc>
    b1c0:	e5933000 	ldr	r3, [r3]
    b1c4:	e3a00030 	mov	r0, #48, 0	; 0x30
    b1c8:	e12fff33 	blx	r3
    b1cc:	e59f3040 	ldr	r3, [pc, #64]	; b214 <__emit_float+0xc4>
    b1d0:	e0843493 	umull	r3, r4, r3, r4
    b1d4:	e1a041a4 	lsr	r4, r4, #3
    b1d8:	eafffff0 	b	b1a0 <__emit_float+0x50>
    b1dc:	e59f3028 	ldr	r3, [pc, #40]	; b20c <__emit_float+0xbc>
    b1e0:	e5933000 	ldr	r3, [r3]
    b1e4:	e3a0002d 	mov	r0, #45, 0	; 0x2d
    b1e8:	e12fff33 	blx	r3
    b1ec:	eeb18b48 	vneg.f64	d8, d8
    b1f0:	eaffffdc 	b	b168 <__emit_float+0x18>
    b1f4:	e3a02000 	mov	r2, #0, 0
    b1f8:	e1a01005 	mov	r1, r5
    b1fc:	e3a0000a 	mov	r0, #10, 0
    b200:	ebffff83 	bl	b014 <emit_val>
    b204:	ecbd8b02 	vpop	{d8}
    b208:	e8bd8070 	pop	{r4, r5, r6, pc}
    b20c:	0000d664 	.word	0x0000d664
    b210:	000186a0 	.word	0x000186a0
    b214:	cccccccd 	.word	0xcccccccd

0000b218 <vprintk>:
    b218:	e92d4030 	push	{r4, r5, lr}
    b21c:	e24dd014 	sub	sp, sp, #20, 0
    b220:	e1a04000 	mov	r4, r0
    b224:	e58d100c 	str	r1, [sp, #12]
    b228:	ea000003 	b	b23c <vprintk+0x24>
    b22c:	e59f33fc 	ldr	r3, [pc, #1020]	; b630 <vprintk+0x418>
    b230:	e5933000 	ldr	r3, [r3]
    b234:	e12fff33 	blx	r3
    b238:	e2844001 	add	r4, r4, #1, 0
    b23c:	e5d40000 	ldrb	r0, [r4]
    b240:	e3500000 	cmp	r0, #0, 0
    b244:	0a0000f7 	beq	b628 <vprintk+0x410>
    b248:	e3500025 	cmp	r0, #37, 0	; 0x25
    b24c:	1afffff6 	bne	b22c <vprintk+0x14>
    b250:	e2845001 	add	r5, r4, #1, 0
    b254:	e5d42001 	ldrb	r2, [r4, #1]
    b258:	e2423030 	sub	r3, r2, #48, 0	; 0x30
    b25c:	e3530048 	cmp	r3, #72, 0	; 0x48
    b260:	979ff103 	ldrls	pc, [pc, r3, lsl #2]
    b264:	ea0000e8 	b	b60c <vprintk+0x3f4>
    b268:	0000b4b8 	.word	0x0000b4b8
    b26c:	0000b60c 	.word	0x0000b60c
    b270:	0000b60c 	.word	0x0000b60c
    b274:	0000b60c 	.word	0x0000b60c
    b278:	0000b60c 	.word	0x0000b60c
    b27c:	0000b60c 	.word	0x0000b60c
    b280:	0000b60c 	.word	0x0000b60c
    b284:	0000b60c 	.word	0x0000b60c
    b288:	0000b60c 	.word	0x0000b60c
    b28c:	0000b60c 	.word	0x0000b60c
    b290:	0000b60c 	.word	0x0000b60c
    b294:	0000b60c 	.word	0x0000b60c
    b298:	0000b60c 	.word	0x0000b60c
    b29c:	0000b60c 	.word	0x0000b60c
    b2a0:	0000b60c 	.word	0x0000b60c
    b2a4:	0000b60c 	.word	0x0000b60c
    b2a8:	0000b60c 	.word	0x0000b60c
    b2ac:	0000b60c 	.word	0x0000b60c
    b2b0:	0000b60c 	.word	0x0000b60c
    b2b4:	0000b60c 	.word	0x0000b60c
    b2b8:	0000b60c 	.word	0x0000b60c
    b2bc:	0000b60c 	.word	0x0000b60c
    b2c0:	0000b60c 	.word	0x0000b60c
    b2c4:	0000b60c 	.word	0x0000b60c
    b2c8:	0000b60c 	.word	0x0000b60c
    b2cc:	0000b60c 	.word	0x0000b60c
    b2d0:	0000b60c 	.word	0x0000b60c
    b2d4:	0000b60c 	.word	0x0000b60c
    b2d8:	0000b60c 	.word	0x0000b60c
    b2dc:	0000b60c 	.word	0x0000b60c
    b2e0:	0000b60c 	.word	0x0000b60c
    b2e4:	0000b60c 	.word	0x0000b60c
    b2e8:	0000b60c 	.word	0x0000b60c
    b2ec:	0000b60c 	.word	0x0000b60c
    b2f0:	0000b60c 	.word	0x0000b60c
    b2f4:	0000b60c 	.word	0x0000b60c
    b2f8:	0000b60c 	.word	0x0000b60c
    b2fc:	0000b60c 	.word	0x0000b60c
    b300:	0000b60c 	.word	0x0000b60c
    b304:	0000b60c 	.word	0x0000b60c
    b308:	0000b60c 	.word	0x0000b60c
    b30c:	0000b60c 	.word	0x0000b60c
    b310:	0000b60c 	.word	0x0000b60c
    b314:	0000b60c 	.word	0x0000b60c
    b318:	0000b60c 	.word	0x0000b60c
    b31c:	0000b60c 	.word	0x0000b60c
    b320:	0000b60c 	.word	0x0000b60c
    b324:	0000b60c 	.word	0x0000b60c
    b328:	0000b60c 	.word	0x0000b60c
    b32c:	0000b60c 	.word	0x0000b60c
    b330:	0000b38c 	.word	0x0000b38c
    b334:	0000b3d4 	.word	0x0000b3d4
    b338:	0000b568 	.word	0x0000b568
    b33c:	0000b60c 	.word	0x0000b60c
    b340:	0000b5e8 	.word	0x0000b5e8
    b344:	0000b60c 	.word	0x0000b60c
    b348:	0000b60c 	.word	0x0000b60c
    b34c:	0000b60c 	.word	0x0000b60c
    b350:	0000b60c 	.word	0x0000b60c
    b354:	0000b60c 	.word	0x0000b60c
    b358:	0000b3f8 	.word	0x0000b3f8
    b35c:	0000b60c 	.word	0x0000b60c
    b360:	0000b60c 	.word	0x0000b60c
    b364:	0000b60c 	.word	0x0000b60c
    b368:	0000b528 	.word	0x0000b528
    b36c:	0000b60c 	.word	0x0000b60c
    b370:	0000b60c 	.word	0x0000b60c
    b374:	0000b5b0 	.word	0x0000b5b0
    b378:	0000b60c 	.word	0x0000b60c
    b37c:	0000b3b0 	.word	0x0000b3b0
    b380:	0000b60c 	.word	0x0000b60c
    b384:	0000b60c 	.word	0x0000b60c
    b388:	0000b528 	.word	0x0000b528
    b38c:	e59d300c 	ldr	r3, [sp, #12]
    b390:	e2832004 	add	r2, r3, #4, 0
    b394:	e58d200c 	str	r2, [sp, #12]
    b398:	e3a02000 	mov	r2, #0, 0
    b39c:	e5931000 	ldr	r1, [r3]
    b3a0:	e3a00002 	mov	r0, #2, 0
    b3a4:	ebffff1a 	bl	b014 <emit_val>
    b3a8:	e1a04005 	mov	r4, r5
    b3ac:	eaffffa1 	b	b238 <vprintk+0x20>
    b3b0:	e59d300c 	ldr	r3, [sp, #12]
    b3b4:	e2832004 	add	r2, r3, #4, 0
    b3b8:	e58d200c 	str	r2, [sp, #12]
    b3bc:	e3a02000 	mov	r2, #0, 0
    b3c0:	e5931000 	ldr	r1, [r3]
    b3c4:	e3a0000a 	mov	r0, #10, 0
    b3c8:	ebffff11 	bl	b014 <emit_val>
    b3cc:	e1a04005 	mov	r4, r5
    b3d0:	eaffff98 	b	b238 <vprintk+0x20>
    b3d4:	e59f3254 	ldr	r3, [pc, #596]	; b630 <vprintk+0x418>
    b3d8:	e5932000 	ldr	r2, [r3]
    b3dc:	e59d300c 	ldr	r3, [sp, #12]
    b3e0:	e2831004 	add	r1, r3, #4, 0
    b3e4:	e58d100c 	str	r1, [sp, #12]
    b3e8:	e5930000 	ldr	r0, [r3]
    b3ec:	e12fff32 	blx	r2
    b3f0:	e1a04005 	mov	r4, r5
    b3f4:	eaffff8f 	b	b238 <vprintk+0x20>
    b3f8:	e2842002 	add	r2, r4, #2, 0
    b3fc:	e5d43002 	ldrb	r3, [r4, #2]
    b400:	e353006c 	cmp	r3, #108, 0	; 0x6c
    b404:	1a000019 	bne	b470 <vprintk+0x258>
    b408:	e2845003 	add	r5, r4, #3, 0
    b40c:	e5d43003 	ldrb	r3, [r4, #3]
    b410:	e3530078 	cmp	r3, #120, 0	; 0x78
    b414:	1a00001c 	bne	b48c <vprintk+0x274>
    b418:	e59f4210 	ldr	r4, [pc, #528]	; b630 <vprintk+0x418>
    b41c:	e5943000 	ldr	r3, [r4]
    b420:	e3a00030 	mov	r0, #48, 0	; 0x30
    b424:	e12fff33 	blx	r3
    b428:	e5943000 	ldr	r3, [r4]
    b42c:	e3a00078 	mov	r0, #120, 0	; 0x78
    b430:	e12fff33 	blx	r3
    b434:	e59d300c 	ldr	r3, [sp, #12]
    b438:	e2833007 	add	r3, r3, #7, 0
    b43c:	e3c33007 	bic	r3, r3, #7, 0
    b440:	e2832008 	add	r2, r3, #8, 0
    b444:	e58d200c 	str	r2, [sp, #12]
    b448:	e5934000 	ldr	r4, [r3]
    b44c:	e5931004 	ldr	r1, [r3, #4]
    b450:	e3510000 	cmp	r1, #0, 0
    b454:	1a000013 	bne	b4a8 <vprintk+0x290>
    b458:	e3a02000 	mov	r2, #0, 0
    b45c:	e1a01004 	mov	r1, r4
    b460:	e3a00010 	mov	r0, #16, 0
    b464:	ebfffeea 	bl	b014 <emit_val>
    b468:	e1a04005 	mov	r4, r5
    b46c:	eaffff71 	b	b238 <vprintk+0x20>
    b470:	e58d2000 	str	r2, [sp]
    b474:	e3a03067 	mov	r3, #103, 0	; 0x67
    b478:	e59f21b4 	ldr	r2, [pc, #436]	; b634 <vprintk+0x41c>
    b47c:	e59f11b4 	ldr	r1, [pc, #436]	; b638 <vprintk+0x420>
    b480:	e59f01b4 	ldr	r0, [pc, #436]	; b63c <vprintk+0x424>
    b484:	ebfffed7 	bl	afe8 <printk>
    b488:	eb000164 	bl	ba20 <clean_reboot>
    b48c:	e58d5000 	str	r5, [sp]
    b490:	e3a0306a 	mov	r3, #106, 0	; 0x6a
    b494:	e59f2198 	ldr	r2, [pc, #408]	; b634 <vprintk+0x41c>
    b498:	e59f1198 	ldr	r1, [pc, #408]	; b638 <vprintk+0x420>
    b49c:	e59f0198 	ldr	r0, [pc, #408]	; b63c <vprintk+0x424>
    b4a0:	ebfffed0 	bl	afe8 <printk>
    b4a4:	eb00015d 	bl	ba20 <clean_reboot>
    b4a8:	e3a02000 	mov	r2, #0, 0
    b4ac:	e3a00010 	mov	r0, #16, 0
    b4b0:	ebfffed7 	bl	b014 <emit_val>
    b4b4:	eaffffe7 	b	b458 <vprintk+0x240>
    b4b8:	e2844002 	add	r4, r4, #2, 0
    b4bc:	e3a02000 	mov	r2, #0, 0
    b4c0:	ea000003 	b	b4d4 <vprintk+0x2bc>
    b4c4:	e0822102 	add	r2, r2, r2, lsl #2
    b4c8:	e2433030 	sub	r3, r3, #48, 0	; 0x30
    b4cc:	e0832082 	add	r2, r3, r2, lsl #1
    b4d0:	e2844001 	add	r4, r4, #1, 0
    b4d4:	e5d43000 	ldrb	r3, [r4]
    b4d8:	e2431030 	sub	r1, r3, #48, 0	; 0x30
    b4dc:	e6ef1071 	uxtb	r1, r1
    b4e0:	e3510009 	cmp	r1, #9, 0
    b4e4:	9afffff6 	bls	b4c4 <vprintk+0x2ac>
    b4e8:	e3530078 	cmp	r3, #120, 0	; 0x78
    b4ec:	1a000006 	bne	b50c <vprintk+0x2f4>
    b4f0:	e59d300c 	ldr	r3, [sp, #12]
    b4f4:	e2831004 	add	r1, r3, #4, 0
    b4f8:	e58d100c 	str	r1, [sp, #12]
    b4fc:	e5931000 	ldr	r1, [r3]
    b500:	e3a00010 	mov	r0, #16, 0
    b504:	ebfffec2 	bl	b014 <emit_val>
    b508:	eaffff4a 	b	b238 <vprintk+0x20>
    b50c:	e58d4000 	str	r4, [sp]
    b510:	e3a03083 	mov	r3, #131, 0	; 0x83
    b514:	e59f2118 	ldr	r2, [pc, #280]	; b634 <vprintk+0x41c>
    b518:	e59f1118 	ldr	r1, [pc, #280]	; b638 <vprintk+0x420>
    b51c:	e59f011c 	ldr	r0, [pc, #284]	; b640 <vprintk+0x428>
    b520:	ebfffeb0 	bl	afe8 <printk>
    b524:	eb00013d 	bl	ba20 <clean_reboot>
    b528:	e59f4100 	ldr	r4, [pc, #256]	; b630 <vprintk+0x418>
    b52c:	e5943000 	ldr	r3, [r4]
    b530:	e3a00030 	mov	r0, #48, 0	; 0x30
    b534:	e12fff33 	blx	r3
    b538:	e5943000 	ldr	r3, [r4]
    b53c:	e3a00078 	mov	r0, #120, 0	; 0x78
    b540:	e12fff33 	blx	r3
    b544:	e59d300c 	ldr	r3, [sp, #12]
    b548:	e2832004 	add	r2, r3, #4, 0
    b54c:	e58d200c 	str	r2, [sp, #12]
    b550:	e3a02000 	mov	r2, #0, 0
    b554:	e5931000 	ldr	r1, [r3]
    b558:	e3a00010 	mov	r0, #16, 0
    b55c:	ebfffeac 	bl	b014 <emit_val>
    b560:	e1a04005 	mov	r4, r5
    b564:	eaffff33 	b	b238 <vprintk+0x20>
    b568:	e59d300c 	ldr	r3, [sp, #12]
    b56c:	e2832004 	add	r2, r3, #4, 0
    b570:	e58d200c 	str	r2, [sp, #12]
    b574:	e5934000 	ldr	r4, [r3]
    b578:	e3540000 	cmp	r4, #0, 0
    b57c:	ba000005 	blt	b598 <vprintk+0x380>
    b580:	e3a02000 	mov	r2, #0, 0
    b584:	e1a01004 	mov	r1, r4
    b588:	e3a0000a 	mov	r0, #10, 0
    b58c:	ebfffea0 	bl	b014 <emit_val>
    b590:	e1a04005 	mov	r4, r5
    b594:	eaffff27 	b	b238 <vprintk+0x20>
    b598:	e59f3090 	ldr	r3, [pc, #144]	; b630 <vprintk+0x418>
    b59c:	e5933000 	ldr	r3, [r3]
    b5a0:	e3a0002d 	mov	r0, #45, 0	; 0x2d
    b5a4:	e12fff33 	blx	r3
    b5a8:	e2644000 	rsb	r4, r4, #0, 0
    b5ac:	eafffff3 	b	b580 <vprintk+0x368>
    b5b0:	e59d300c 	ldr	r3, [sp, #12]
    b5b4:	e2832004 	add	r2, r3, #4, 0
    b5b8:	e58d200c 	str	r2, [sp, #12]
    b5bc:	e5934000 	ldr	r4, [r3]
    b5c0:	ea000003 	b	b5d4 <vprintk+0x3bc>
    b5c4:	e59f3064 	ldr	r3, [pc, #100]	; b630 <vprintk+0x418>
    b5c8:	e5933000 	ldr	r3, [r3]
    b5cc:	e12fff33 	blx	r3
    b5d0:	e2844001 	add	r4, r4, #1, 0
    b5d4:	e5d40000 	ldrb	r0, [r4]
    b5d8:	e3500000 	cmp	r0, #0, 0
    b5dc:	1afffff8 	bne	b5c4 <vprintk+0x3ac>
    b5e0:	e1a04005 	mov	r4, r5
    b5e4:	eaffff13 	b	b238 <vprintk+0x20>
    b5e8:	e59d300c 	ldr	r3, [sp, #12]
    b5ec:	e2833007 	add	r3, r3, #7, 0
    b5f0:	e3c33007 	bic	r3, r3, #7, 0
    b5f4:	e2832008 	add	r2, r3, #8, 0
    b5f8:	e58d200c 	str	r2, [sp, #12]
    b5fc:	ed930b00 	vldr	d0, [r3]
    b600:	ebfffed2 	bl	b150 <__emit_float>
    b604:	e1a04005 	mov	r4, r5
    b608:	eaffff0a 	b	b238 <vprintk+0x20>
    b60c:	e58d2000 	str	r2, [sp]
    b610:	e3a030aa 	mov	r3, #170, 0	; 0xaa
    b614:	e59f2018 	ldr	r2, [pc, #24]	; b634 <vprintk+0x41c>
    b618:	e59f1018 	ldr	r1, [pc, #24]	; b638 <vprintk+0x420>
    b61c:	e59f0020 	ldr	r0, [pc, #32]	; b644 <vprintk+0x42c>
    b620:	ebfffe70 	bl	afe8 <printk>
    b624:	eb0000fd 	bl	ba20 <clean_reboot>
    b628:	e28dd014 	add	sp, sp, #20, 0
    b62c:	e8bd8030 	pop	{r4, r5, pc}
    b630:	0000d664 	.word	0x0000d664
    b634:	0000d5c0 	.word	0x0000d5c0
    b638:	0000d4c4 	.word	0x0000d4c4
    b63c:	0000d51c 	.word	0x0000d51c
    b640:	0000d554 	.word	0x0000d554
    b644:	0000d58c 	.word	0x0000d58c

0000b648 <default_putchar>:
    b648:	e92d4010 	push	{r4, lr}
    b64c:	e1a04000 	mov	r4, r0
    b650:	e6ef0070 	uxtb	r0, r0
    b654:	eb00021a 	bl	bec4 <uart_put8>
    b658:	e1a00004 	mov	r0, r4
    b65c:	e8bd8010 	pop	{r4, pc}

0000b660 <rpi_putchar_set>:
    b660:	e59f300c 	ldr	r3, [pc, #12]	; b674 <rpi_putchar_set+0x14>
    b664:	e5932000 	ldr	r2, [r3]
    b668:	e5830000 	str	r0, [r3]
    b66c:	e1a00002 	mov	r0, r2
    b670:	e12fff1e 	bx	lr
    b674:	0000d664 	.word	0x0000d664

0000b678 <random_r>:
    b678:	e1a0c001 	mov	ip, r1
    b67c:	e16f1f11 	clz	r1, r1
    b680:	e1a012a1 	lsr	r1, r1, #5
    b684:	e3500000 	cmp	r0, #0, 0
    b688:	03a01001 	moveq	r1, #1, 0
    b68c:	e3510000 	cmp	r1, #0, 0
    b690:	1a000023 	bne	b724 <random_r+0xac>
    b694:	e92d4030 	push	{r4, r5, lr}
    b698:	e1a03000 	mov	r3, r0
    b69c:	e590e008 	ldr	lr, [r0, #8]
    b6a0:	e590000c 	ldr	r0, [r0, #12]
    b6a4:	e3500000 	cmp	r0, #0, 0
    b6a8:	1a000008 	bne	b6d0 <random_r+0x58>
    b6ac:	e59e2000 	ldr	r2, [lr]
    b6b0:	e59f3074 	ldr	r3, [pc, #116]	; b72c <random_r+0xb4>
    b6b4:	e0030293 	mul	r3, r3, r2
    b6b8:	e2833a03 	add	r3, r3, #12288	; 0x3000
    b6bc:	e2833039 	add	r3, r3, #57, 0	; 0x39
    b6c0:	e3c33102 	bic	r3, r3, #-2147483648	; 0x80000000
    b6c4:	e58e3000 	str	r3, [lr]
    b6c8:	e58c3000 	str	r3, [ip]
    b6cc:	e8bd8030 	pop	{r4, r5, pc}
    b6d0:	e5932000 	ldr	r2, [r3]
    b6d4:	e5930004 	ldr	r0, [r3, #4]
    b6d8:	e5934018 	ldr	r4, [r3, #24]
    b6dc:	e5901000 	ldr	r1, [r0]
    b6e0:	e5925000 	ldr	r5, [r2]
    b6e4:	e0811005 	add	r1, r1, r5
    b6e8:	e4821004 	str	r1, [r2], #4
    b6ec:	e1a010a1 	lsr	r1, r1, #1
    b6f0:	e58c1000 	str	r1, [ip]
    b6f4:	e1540002 	cmp	r4, r2
    b6f8:	8a000005 	bhi	b714 <random_r+0x9c>
    b6fc:	e2800004 	add	r0, r0, #4, 0
    b700:	e1a0200e 	mov	r2, lr
    b704:	e5832000 	str	r2, [r3]
    b708:	e5830004 	str	r0, [r3, #4]
    b70c:	e3a00000 	mov	r0, #0, 0
    b710:	e8bd8030 	pop	{r4, r5, pc}
    b714:	e2800004 	add	r0, r0, #4, 0
    b718:	e1540000 	cmp	r4, r0
    b71c:	91a0000e 	movls	r0, lr
    b720:	eafffff7 	b	b704 <random_r+0x8c>
    b724:	e3e00000 	mvn	r0, #0, 0
    b728:	e12fff1e 	bx	lr
    b72c:	41c64e6d 	.word	0x41c64e6d

0000b730 <srandom_r>:
    b730:	e92d4030 	push	{r4, r5, lr}
    b734:	e24dd00c 	sub	sp, sp, #12, 0
    b738:	e2514000 	subs	r4, r1, #0, 0
    b73c:	0a000032 	beq	b80c <srandom_r+0xdc>
    b740:	e1a03000 	mov	r3, r0
    b744:	e594000c 	ldr	r0, [r4, #12]
    b748:	e3500004 	cmp	r0, #4, 0
    b74c:	8a000030 	bhi	b814 <srandom_r+0xe4>
    b750:	e5945008 	ldr	r5, [r4, #8]
    b754:	e3530000 	cmp	r3, #0, 0
    b758:	03a03001 	moveq	r3, #1, 0
    b75c:	e1a02003 	mov	r2, r3
    b760:	e5853000 	str	r3, [r5]
    b764:	e3500000 	cmp	r0, #0, 0
    b768:	0a000025 	beq	b804 <srandom_r+0xd4>
    b76c:	e5941010 	ldr	r1, [r4, #16]
    b770:	e1a0e005 	mov	lr, r5
    b774:	e3a0c001 	mov	ip, #1, 0
    b778:	ea000002 	b	b788 <srandom_r+0x58>
    b77c:	e2422106 	sub	r2, r2, #-2147483647	; 0x80000001
    b780:	e5ae2004 	str	r2, [lr, #4]!
    b784:	e28cc001 	add	ip, ip, #1, 0
    b788:	e15c0001 	cmp	ip, r1
    b78c:	aa00000f 	bge	b7d0 <srandom_r+0xa0>
    b790:	e59f0084 	ldr	r0, [pc, #132]	; b81c <srandom_r+0xec>
    b794:	e0c03290 	smull	r3, r0, r0, r2
    b798:	e0803002 	add	r3, r0, r2
    b79c:	e1a00fc2 	asr	r0, r2, #31
    b7a0:	e0600843 	rsb	r0, r0, r3, asr #16
    b7a4:	e59f3074 	ldr	r3, [pc, #116]	; b820 <srandom_r+0xf0>
    b7a8:	e0030093 	mul	r3, r3, r0
    b7ac:	e0423003 	sub	r3, r2, r3
    b7b0:	e0832103 	add	r2, r3, r3, lsl #2
    b7b4:	e0622202 	rsb	r2, r2, r2, lsl #4
    b7b8:	e0833282 	add	r3, r3, r2, lsl #5
    b7bc:	e0633183 	rsb	r3, r3, r3, lsl #3
    b7c0:	e59f205c 	ldr	r2, [pc, #92]	; b824 <srandom_r+0xf4>
    b7c4:	e0323290 	mlas	r2, r0, r2, r3
    b7c8:	5affffec 	bpl	b780 <srandom_r+0x50>
    b7cc:	eaffffea 	b	b77c <srandom_r+0x4c>
    b7d0:	e5943014 	ldr	r3, [r4, #20]
    b7d4:	e0853103 	add	r3, r5, r3, lsl #2
    b7d8:	e5843000 	str	r3, [r4]
    b7dc:	e5845004 	str	r5, [r4, #4]
    b7e0:	e0811101 	add	r1, r1, r1, lsl #2
    b7e4:	e1a05081 	lsl	r5, r1, #1
    b7e8:	ea000002 	b	b7f8 <srandom_r+0xc8>
    b7ec:	e28d1004 	add	r1, sp, #4, 0
    b7f0:	e1a00004 	mov	r0, r4
    b7f4:	ebffff9f 	bl	b678 <random_r>
    b7f8:	e2555001 	subs	r5, r5, #1, 0
    b7fc:	5afffffa 	bpl	b7ec <srandom_r+0xbc>
    b800:	e3a00000 	mov	r0, #0, 0
    b804:	e28dd00c 	add	sp, sp, #12, 0
    b808:	e8bd8030 	pop	{r4, r5, pc}
    b80c:	e3e00000 	mvn	r0, #0, 0
    b810:	eafffffb 	b	b804 <srandom_r+0xd4>
    b814:	e3e00000 	mvn	r0, #0, 0
    b818:	eafffff9 	b	b804 <srandom_r+0xd4>
    b81c:	834e0b5f 	.word	0x834e0b5f
    b820:	0001f31d 	.word	0x0001f31d
    b824:	fffff4ec 	.word	0xfffff4ec

0000b828 <initstate_r>:
    b828:	e92d41f0 	push	{r4, r5, r6, r7, r8, lr}
    b82c:	e2534000 	subs	r4, r3, #0, 0
    b830:	0a00002e 	beq	b8f0 <initstate_r+0xc8>
    b834:	e1a06001 	mov	r6, r1
    b838:	e352007f 	cmp	r2, #127, 0	; 0x7f
    b83c:	9a00001d 	bls	b8b8 <initstate_r+0x90>
    b840:	e35200ff 	cmp	r2, #255, 0	; 0xff
    b844:	8a000025 	bhi	b8e0 <initstate_r+0xb8>
    b848:	e3a05003 	mov	r5, #3, 0
    b84c:	e59f20ac 	ldr	r2, [pc, #172]	; b900 <initstate_r+0xd8>
    b850:	e2853004 	add	r3, r5, #4, 0
    b854:	e0823103 	add	r3, r2, r3, lsl #2
    b858:	e5933004 	ldr	r3, [r3, #4]
    b85c:	e7922105 	ldr	r2, [r2, r5, lsl #2]
    b860:	e584500c 	str	r5, [r4, #12]
    b864:	e5842014 	str	r2, [r4, #20]
    b868:	e5843010 	str	r3, [r4, #16]
    b86c:	e2867004 	add	r7, r6, #4, 0
    b870:	e0873103 	add	r3, r7, r3, lsl #2
    b874:	e5843018 	str	r3, [r4, #24]
    b878:	e5847008 	str	r7, [r4, #8]
    b87c:	e1a01004 	mov	r1, r4
    b880:	ebffffaa 	bl	b730 <srandom_r>
    b884:	e3a03000 	mov	r3, #0, 0
    b888:	e5863000 	str	r3, [r6]
    b88c:	e1550003 	cmp	r5, r3
    b890:	0a000006 	beq	b8b0 <initstate_r+0x88>
    b894:	e5943004 	ldr	r3, [r4, #4]
    b898:	e0433007 	sub	r3, r3, r7
    b89c:	e3c37003 	bic	r7, r3, #3, 0
    b8a0:	e0877143 	add	r7, r7, r3, asr #2
    b8a4:	e0875005 	add	r5, r7, r5
    b8a8:	e5865000 	str	r5, [r6]
    b8ac:	e3a05000 	mov	r5, #0, 0
    b8b0:	e1a00005 	mov	r0, r5
    b8b4:	e8bd81f0 	pop	{r4, r5, r6, r7, r8, pc}
    b8b8:	e352001f 	cmp	r2, #31, 0
    b8bc:	8a000003 	bhi	b8d0 <initstate_r+0xa8>
    b8c0:	e3520007 	cmp	r2, #7, 0
    b8c4:	9a00000b 	bls	b8f8 <initstate_r+0xd0>
    b8c8:	e3a05000 	mov	r5, #0, 0
    b8cc:	eaffffde 	b	b84c <initstate_r+0x24>
    b8d0:	e352003f 	cmp	r2, #63, 0	; 0x3f
    b8d4:	8a000003 	bhi	b8e8 <initstate_r+0xc0>
    b8d8:	e3a05001 	mov	r5, #1, 0
    b8dc:	eaffffda 	b	b84c <initstate_r+0x24>
    b8e0:	e3a05004 	mov	r5, #4, 0
    b8e4:	eaffffd8 	b	b84c <initstate_r+0x24>
    b8e8:	e3a05002 	mov	r5, #2, 0
    b8ec:	eaffffd6 	b	b84c <initstate_r+0x24>
    b8f0:	e3e05000 	mvn	r5, #0, 0
    b8f4:	eaffffed 	b	b8b0 <initstate_r+0x88>
    b8f8:	e3e05000 	mvn	r5, #0, 0
    b8fc:	eaffffeb 	b	b8b0 <initstate_r+0x88>
    b900:	0000d5c8 	.word	0x0000d5c8

0000b904 <setstate_r>:
    b904:	e92d4070 	push	{r4, r5, r6, lr}
    b908:	e1a04001 	mov	r4, r1
    b90c:	e16f1f11 	clz	r1, r1
    b910:	e1a012a1 	lsr	r1, r1, #5
    b914:	e3500000 	cmp	r0, #0, 0
    b918:	03a01001 	moveq	r1, #1, 0
    b91c:	e3510000 	cmp	r1, #0, 0
    b920:	1a000031 	bne	b9ec <setstate_r+0xe8>
    b924:	e2805004 	add	r5, r0, #4, 0
    b928:	e594200c 	ldr	r2, [r4, #12]
    b92c:	e5941008 	ldr	r1, [r4, #8]
    b930:	e3520000 	cmp	r2, #0, 0
    b934:	1a000025 	bne	b9d0 <setstate_r+0xcc>
    b938:	e3a03000 	mov	r3, #0, 0
    b93c:	e5013004 	str	r3, [r1, #-4]
    b940:	e5902000 	ldr	r2, [r0]
    b944:	e59f30b0 	ldr	r3, [pc, #176]	; b9fc <setstate_r+0xf8>
    b948:	e0c13293 	smull	r3, r1, r3, r2
    b94c:	e1a03fc2 	asr	r3, r2, #31
    b950:	e06330c1 	rsb	r3, r3, r1, asr #1
    b954:	e0833103 	add	r3, r3, r3, lsl #2
    b958:	e0423003 	sub	r3, r2, r3
    b95c:	e3530004 	cmp	r3, #4, 0
    b960:	8a000023 	bhi	b9f4 <setstate_r+0xf0>
    b964:	e59f1094 	ldr	r1, [pc, #148]	; ba00 <setstate_r+0xfc>
    b968:	e2832004 	add	r2, r3, #4, 0
    b96c:	e0812102 	add	r2, r1, r2, lsl #2
    b970:	e5926004 	ldr	r6, [r2, #4]
    b974:	e5846010 	str	r6, [r4, #16]
    b978:	e791c103 	ldr	ip, [r1, r3, lsl #2]
    b97c:	e584c014 	str	ip, [r4, #20]
    b980:	e584300c 	str	r3, [r4, #12]
    b984:	e3530000 	cmp	r3, #0, 0
    b988:	0a00000b 	beq	b9bc <setstate_r+0xb8>
    b98c:	e5902000 	ldr	r2, [r0]
    b990:	e59f0064 	ldr	r0, [pc, #100]	; b9fc <setstate_r+0xf8>
    b994:	e0c03290 	smull	r3, r0, r0, r2
    b998:	e1a03fc2 	asr	r3, r2, #31
    b99c:	e06300c0 	rsb	r0, r3, r0, asr #1
    b9a0:	e0852100 	add	r2, r5, r0, lsl #2
    b9a4:	e5842004 	str	r2, [r4, #4]
    b9a8:	e1a01006 	mov	r1, r6
    b9ac:	e08c0000 	add	r0, ip, r0
    b9b0:	eb000234 	bl	c288 <__aeabi_idivmod>
    b9b4:	e0851101 	add	r1, r5, r1, lsl #2
    b9b8:	e5841000 	str	r1, [r4]
    b9bc:	e5845008 	str	r5, [r4, #8]
    b9c0:	e0855106 	add	r5, r5, r6, lsl #2
    b9c4:	e5845018 	str	r5, [r4, #24]
    b9c8:	e3a00000 	mov	r0, #0, 0
    b9cc:	e8bd8070 	pop	{r4, r5, r6, pc}
    b9d0:	e5943004 	ldr	r3, [r4, #4]
    b9d4:	e043c001 	sub	ip, r3, r1
    b9d8:	e3cc3003 	bic	r3, ip, #3, 0
    b9dc:	e083314c 	add	r3, r3, ip, asr #2
    b9e0:	e0833002 	add	r3, r3, r2
    b9e4:	e5013004 	str	r3, [r1, #-4]
    b9e8:	eaffffd4 	b	b940 <setstate_r+0x3c>
    b9ec:	e3e00000 	mvn	r0, #0, 0
    b9f0:	e8bd8070 	pop	{r4, r5, r6, pc}
    b9f4:	e3e00000 	mvn	r0, #0, 0
    b9f8:	e8bd8070 	pop	{r4, r5, r6, pc}
    b9fc:	66666667 	.word	0x66666667
    ba00:	0000d5c8 	.word	0x0000d5c8

0000ba04 <strlen>:
    ba04:	e1a02000 	mov	r2, r0
    ba08:	e3a00000 	mov	r0, #0, 0
    ba0c:	e7d23000 	ldrb	r3, [r2, r0]
    ba10:	e3530000 	cmp	r3, #0, 0
    ba14:	012fff1e 	bxeq	lr
    ba18:	e2800001 	add	r0, r0, #1, 0
    ba1c:	eafffffa 	b	ba0c <strlen+0x8>

0000ba20 <clean_reboot>:
    ba20:	e92d4010 	push	{r4, lr}
    ba24:	e59f0010 	ldr	r0, [pc, #16]	; ba3c <clean_reboot+0x1c>
    ba28:	eb000179 	bl	c014 <putk>
    ba2c:	eb00013f 	bl	bf30 <uart_flush_tx>
    ba30:	e3a0000a 	mov	r0, #10, 0
    ba34:	eb00003c 	bl	bb2c <delay_ms>
    ba38:	eb000017 	bl	ba9c <rpi_reboot>
    ba3c:	0000d5f0 	.word	0x0000d5f0

0000ba40 <program_end>:
    ba40:	e59f0000 	ldr	r0, [pc]	; ba48 <program_end+0x8>
    ba44:	e12fff1e 	bx	lr
    ba48:	0000f790 	.word	0x0000f790

0000ba4c <_cstart>:
    ba4c:	e92d4010 	push	{r4, lr}
    ba50:	e59f3024 	ldr	r3, [pc, #36]	; ba7c <_cstart+0x30>
    ba54:	e59f2024 	ldr	r2, [pc, #36]	; ba80 <_cstart+0x34>
    ba58:	e1530002 	cmp	r3, r2
    ba5c:	33a02000 	movcc	r2, #0, 0
    ba60:	34c32001 	strbcc	r2, [r3], #1
    ba64:	3afffffa 	bcc	ba54 <_cstart+0x8>
    ba68:	eb0000e6 	bl	be08 <uart_init>
    ba6c:	e3a03001 	mov	r3, #1, 0
    ba70:	ee0f3f1c 	mcr	15, 0, r3, cr15, cr12, {0}
    ba74:	ebfff520 	bl	8efc <notmain>
    ba78:	ebffffe8 	bl	ba20 <clean_reboot>
    ba7c:	0000d668 	.word	0x0000d668
    ba80:	0000f790 	.word	0x0000f790

0000ba84 <dev_barrier>:
    ba84:	ea000002 	b	ba94 <dsb>

0000ba88 <dmb>:
    ba88:	e3a00000 	mov	r0, #0, 0
    ba8c:	ee070fba 	mcr	15, 0, r0, cr7, cr10, {5}
    ba90:	e12fff1e 	bx	lr

0000ba94 <dsb>:
    ba94:	ee070f9a 	mcr	15, 0, r0, cr7, cr10, {4}
    ba98:	e12fff1e 	bx	lr

0000ba9c <rpi_reboot>:
    ba9c:	e92d4010 	push	{r4, lr}
    baa0:	eb000122 	bl	bf30 <uart_flush_tx>
    baa4:	e3a0000a 	mov	r0, #10, 0
    baa8:	eb00001f 	bl	bb2c <delay_ms>
    baac:	e59f1014 	ldr	r1, [pc, #20]	; bac8 <rpi_reboot+0x2c>
    bab0:	e59f0014 	ldr	r0, [pc, #20]	; bacc <rpi_reboot+0x30>
    bab4:	ebfff160 	bl	803c <PUT32>
    bab8:	e59f1010 	ldr	r1, [pc, #16]	; bad0 <rpi_reboot+0x34>
    babc:	e59f0010 	ldr	r0, [pc, #16]	; bad4 <rpi_reboot+0x38>
    bac0:	ebfff15d 	bl	803c <PUT32>
    bac4:	eafffffe 	b	bac4 <rpi_reboot+0x28>
    bac8:	5a000001 	.word	0x5a000001
    bacc:	20100024 	.word	0x20100024
    bad0:	5a000020 	.word	0x5a000020
    bad4:	2010001c 	.word	0x2010001c

0000bad8 <timer_get_usec_raw>:
    bad8:	e92d4010 	push	{r4, lr}
    badc:	e59f0004 	ldr	r0, [pc, #4]	; bae8 <timer_get_usec_raw+0x10>
    bae0:	ebfff157 	bl	8044 <GET32>
    bae4:	e8bd8010 	pop	{r4, pc}
    bae8:	20003004 	.word	0x20003004

0000baec <timer_get_usec>:
    baec:	e92d4010 	push	{r4, lr}
    baf0:	ebffffe3 	bl	ba84 <dev_barrier>
    baf4:	ebfffff7 	bl	bad8 <timer_get_usec_raw>
    baf8:	e1a04000 	mov	r4, r0
    bafc:	ebffffe0 	bl	ba84 <dev_barrier>
    bb00:	e1a00004 	mov	r0, r4
    bb04:	e8bd8010 	pop	{r4, pc}

0000bb08 <delay_us>:
    bb08:	e92d4070 	push	{r4, r5, r6, lr}
    bb0c:	e1a05000 	mov	r5, r0
    bb10:	ebfffff5 	bl	baec <timer_get_usec>
    bb14:	e1a04000 	mov	r4, r0
    bb18:	ebfffff3 	bl	baec <timer_get_usec>
    bb1c:	e0400004 	sub	r0, r0, r4
    bb20:	e1500005 	cmp	r0, r5
    bb24:	3afffffb 	bcc	bb18 <delay_us+0x10>
    bb28:	e8bd8070 	pop	{r4, r5, r6, pc}

0000bb2c <delay_ms>:
    bb2c:	e92d4010 	push	{r4, lr}
    bb30:	e0603280 	rsb	r3, r0, r0, lsl #5
    bb34:	e0800103 	add	r0, r0, r3, lsl #2
    bb38:	e1a00180 	lsl	r0, r0, #3
    bb3c:	ebfffff1 	bl	bb08 <delay_us>
    bb40:	e8bd8010 	pop	{r4, pc}

0000bb44 <delay_sec>:
    bb44:	e92d4010 	push	{r4, lr}
    bb48:	e0603280 	rsb	r3, r0, r0, lsl #5
    bb4c:	e0800103 	add	r0, r0, r3, lsl #2
    bb50:	e1a00180 	lsl	r0, r0, #3
    bb54:	ebfffff4 	bl	bb2c <delay_ms>
    bb58:	e8bd8010 	pop	{r4, pc}

0000bb5c <gpio_set_function>:
    bb5c:	e92d4070 	push	{r4, r5, r6, lr}
    bb60:	e24dd008 	sub	sp, sp, #8, 0
    bb64:	e3500035 	cmp	r0, #53, 0	; 0x35
    bb68:	8a000015 	bhi	bbc4 <gpio_set_function+0x68>
    bb6c:	e1a06001 	mov	r6, r1
    bb70:	e3d13007 	bics	r3, r1, #7, 0
    bb74:	1a000019 	bne	bbe0 <gpio_set_function+0x84>
    bb78:	e59f307c 	ldr	r3, [pc, #124]	; bbfc <gpio_set_function+0xa0>
    bb7c:	e0832093 	umull	r2, r3, r3, r0
    bb80:	e1a031a3 	lsr	r3, r3, #3
    bb84:	e1a02003 	mov	r2, r3
    bb88:	e0833103 	add	r3, r3, r3, lsl #2
    bb8c:	e0403083 	sub	r3, r0, r3, lsl #1
    bb90:	e0834083 	add	r4, r3, r3, lsl #1
    bb94:	e2820302 	add	r0, r2, #134217728	; 0x8000000
    bb98:	e2800702 	add	r0, r0, #524288	; 0x80000
    bb9c:	e1a05100 	lsl	r5, r0, #2
    bba0:	e1a00005 	mov	r0, r5
    bba4:	ebfff126 	bl	8044 <GET32>
    bba8:	e3a01007 	mov	r1, #7, 0
    bbac:	e1c01411 	bic	r1, r0, r1, lsl r4
    bbb0:	e1811416 	orr	r1, r1, r6, lsl r4
    bbb4:	e1a00005 	mov	r0, r5
    bbb8:	ebfff11f 	bl	803c <PUT32>
    bbbc:	e28dd008 	add	sp, sp, #8, 0
    bbc0:	e8bd8070 	pop	{r4, r5, r6, pc}
    bbc4:	e58d0000 	str	r0, [sp]
    bbc8:	e3a0303e 	mov	r3, #62, 0	; 0x3e
    bbcc:	e59f202c 	ldr	r2, [pc, #44]	; bc00 <gpio_set_function+0xa4>
    bbd0:	e59f102c 	ldr	r1, [pc, #44]	; bc04 <gpio_set_function+0xa8>
    bbd4:	e59f002c 	ldr	r0, [pc, #44]	; bc08 <gpio_set_function+0xac>
    bbd8:	ebfffd02 	bl	afe8 <printk>
    bbdc:	ebffff8f 	bl	ba20 <clean_reboot>
    bbe0:	e58d1000 	str	r1, [sp]
    bbe4:	e3a03040 	mov	r3, #64, 0	; 0x40
    bbe8:	e59f2010 	ldr	r2, [pc, #16]	; bc00 <gpio_set_function+0xa4>
    bbec:	e59f1010 	ldr	r1, [pc, #16]	; bc04 <gpio_set_function+0xa8>
    bbf0:	e59f0014 	ldr	r0, [pc, #20]	; bc0c <gpio_set_function+0xb0>
    bbf4:	ebfffcfb 	bl	afe8 <printk>
    bbf8:	ebffff88 	bl	ba20 <clean_reboot>
    bbfc:	cccccccd 	.word	0xcccccccd
    bc00:	0000d650 	.word	0x0000d650
    bc04:	0000d5fc 	.word	0x0000d5fc
    bc08:	0000d604 	.word	0x0000d604
    bc0c:	0000d62c 	.word	0x0000d62c

0000bc10 <gpio_set_output>:
    bc10:	e92d4010 	push	{r4, lr}
    bc14:	e3a01001 	mov	r1, #1, 0
    bc18:	ebffffcf 	bl	bb5c <gpio_set_function>
    bc1c:	e8bd8010 	pop	{r4, pc}

0000bc20 <gpio_set_on>:
    bc20:	e92d4010 	push	{r4, lr}
    bc24:	e350001f 	cmp	r0, #31, 0
    bc28:	9a000005 	bls	bc44 <gpio_set_on+0x24>
    bc2c:	e200001f 	and	r0, r0, #31, 0
    bc30:	e3a01001 	mov	r1, #1, 0
    bc34:	e1a01011 	lsl	r1, r1, r0
    bc38:	e59f0018 	ldr	r0, [pc, #24]	; bc58 <gpio_set_on+0x38>
    bc3c:	ebfff0fe 	bl	803c <PUT32>
    bc40:	e8bd8010 	pop	{r4, pc}
    bc44:	e3a01001 	mov	r1, #1, 0
    bc48:	e1a01011 	lsl	r1, r1, r0
    bc4c:	e59f0008 	ldr	r0, [pc, #8]	; bc5c <gpio_set_on+0x3c>
    bc50:	ebfff0f9 	bl	803c <PUT32>
    bc54:	e8bd8010 	pop	{r4, pc}
    bc58:	20200020 	.word	0x20200020
    bc5c:	2020001c 	.word	0x2020001c

0000bc60 <gpio_set_off>:
    bc60:	e92d4010 	push	{r4, lr}
    bc64:	e350001f 	cmp	r0, #31, 0
    bc68:	9a000005 	bls	bc84 <gpio_set_off+0x24>
    bc6c:	e200001f 	and	r0, r0, #31, 0
    bc70:	e3a01001 	mov	r1, #1, 0
    bc74:	e1a01011 	lsl	r1, r1, r0
    bc78:	e59f0018 	ldr	r0, [pc, #24]	; bc98 <gpio_set_off+0x38>
    bc7c:	ebfff0ee 	bl	803c <PUT32>
    bc80:	e8bd8010 	pop	{r4, pc}
    bc84:	e3a01001 	mov	r1, #1, 0
    bc88:	e1a01011 	lsl	r1, r1, r0
    bc8c:	e59f0008 	ldr	r0, [pc, #8]	; bc9c <gpio_set_off+0x3c>
    bc90:	ebfff0e9 	bl	803c <PUT32>
    bc94:	e8bd8010 	pop	{r4, pc}
    bc98:	2020002c 	.word	0x2020002c
    bc9c:	20200028 	.word	0x20200028

0000bca0 <gpio_set_input>:
    bca0:	e92d4010 	push	{r4, lr}
    bca4:	e3a01000 	mov	r1, #0, 0
    bca8:	ebffffab 	bl	bb5c <gpio_set_function>
    bcac:	e8bd8010 	pop	{r4, pc}

0000bcb0 <gpio_write>:
    bcb0:	e92d4010 	push	{r4, lr}
    bcb4:	e3510000 	cmp	r1, #0, 0
    bcb8:	0a000001 	beq	bcc4 <gpio_write+0x14>
    bcbc:	ebffffd7 	bl	bc20 <gpio_set_on>
    bcc0:	e8bd8010 	pop	{r4, pc}
    bcc4:	ebffffe5 	bl	bc60 <gpio_set_off>
    bcc8:	e8bd8010 	pop	{r4, pc}

0000bccc <gpio_read>:
    bccc:	e92d4010 	push	{r4, lr}
    bcd0:	e1a04000 	mov	r4, r0
    bcd4:	e350001f 	cmp	r0, #31, 0
    bcd8:	8a000004 	bhi	bcf0 <gpio_read+0x24>
    bcdc:	e59f0024 	ldr	r0, [pc, #36]	; bd08 <gpio_read+0x3c>
    bce0:	ebfff0d7 	bl	8044 <GET32>
    bce4:	e1a00430 	lsr	r0, r0, r4
    bce8:	e2000001 	and	r0, r0, #1, 0
    bcec:	e8bd8010 	pop	{r4, pc}
    bcf0:	e59f0014 	ldr	r0, [pc, #20]	; bd0c <gpio_read+0x40>
    bcf4:	ebfff0d2 	bl	8044 <GET32>
    bcf8:	e204401f 	and	r4, r4, #31, 0
    bcfc:	e1a00430 	lsr	r0, r0, r4
    bd00:	e2000001 	and	r0, r0, #1, 0
    bd04:	e8bd8010 	pop	{r4, pc}
    bd08:	20200034 	.word	0x20200034
    bd0c:	20200038 	.word	0x20200038

0000bd10 <using_staff_gpio>:
    bd10:	e12fff1e 	bx	lr

0000bd14 <and_in32>:
    bd14:	e92d4070 	push	{r4, r5, r6, lr}
    bd18:	e1a04000 	mov	r4, r0
    bd1c:	e1a05001 	mov	r5, r1
    bd20:	ebfff0c7 	bl	8044 <GET32>
    bd24:	e0001005 	and	r1, r0, r5
    bd28:	e1a00004 	mov	r0, r4
    bd2c:	ebfff0c2 	bl	803c <PUT32>
    bd30:	e8bd8070 	pop	{r4, r5, r6, pc}

0000bd34 <or_in32>:
    bd34:	e92d4070 	push	{r4, r5, r6, lr}
    bd38:	e1a04000 	mov	r4, r0
    bd3c:	e1a05001 	mov	r5, r1
    bd40:	ebfff0bf 	bl	8044 <GET32>
    bd44:	e1801005 	orr	r1, r0, r5
    bd48:	e1a00004 	mov	r0, r4
    bd4c:	ebfff0ba 	bl	803c <PUT32>
    bd50:	e8bd8070 	pop	{r4, r5, r6, pc}

0000bd54 <uart_init_div>:
    bd54:	e92d4070 	push	{r4, r5, r6, lr}
    bd58:	e1a04000 	mov	r4, r0
    bd5c:	ebffff48 	bl	ba84 <dev_barrier>
    bd60:	e3a01002 	mov	r1, #2, 0
    bd64:	e3a0000e 	mov	r0, #14, 0
    bd68:	ebffff7b 	bl	bb5c <gpio_set_function>
    bd6c:	e3a01002 	mov	r1, #2, 0
    bd70:	e3a0000f 	mov	r0, #15, 0
    bd74:	ebffff78 	bl	bb5c <gpio_set_function>
    bd78:	ebffff41 	bl	ba84 <dev_barrier>
    bd7c:	e3a01001 	mov	r1, #1, 0
    bd80:	e59f0064 	ldr	r0, [pc, #100]	; bdec <uart_init_div+0x98>
    bd84:	ebffffea 	bl	bd34 <or_in32>
    bd88:	ebffff3d 	bl	ba84 <dev_barrier>
    bd8c:	e59f505c 	ldr	r5, [pc, #92]	; bdf0 <uart_init_div+0x9c>
    bd90:	e3a01000 	mov	r1, #0, 0
    bd94:	e1a00005 	mov	r0, r5
    bd98:	ebfff0a7 	bl	803c <PUT32>
    bd9c:	e3a01000 	mov	r1, #0, 0
    bda0:	e59f004c 	ldr	r0, [pc, #76]	; bdf4 <uart_init_div+0xa0>
    bda4:	ebfff0a4 	bl	803c <PUT32>
    bda8:	e3a01003 	mov	r1, #3, 0
    bdac:	e59f0044 	ldr	r0, [pc, #68]	; bdf8 <uart_init_div+0xa4>
    bdb0:	ebfff0a1 	bl	803c <PUT32>
    bdb4:	e3a01000 	mov	r1, #0, 0
    bdb8:	e59f003c 	ldr	r0, [pc, #60]	; bdfc <uart_init_div+0xa8>
    bdbc:	ebfff09e 	bl	803c <PUT32>
    bdc0:	e3a01006 	mov	r1, #6, 0
    bdc4:	e59f0034 	ldr	r0, [pc, #52]	; be00 <uart_init_div+0xac>
    bdc8:	ebfff09b 	bl	803c <PUT32>
    bdcc:	e1a01004 	mov	r1, r4
    bdd0:	e59f002c 	ldr	r0, [pc, #44]	; be04 <uart_init_div+0xb0>
    bdd4:	ebfff098 	bl	803c <PUT32>
    bdd8:	e3a01003 	mov	r1, #3, 0
    bddc:	e1a00005 	mov	r0, r5
    bde0:	ebfff095 	bl	803c <PUT32>
    bde4:	ebffff26 	bl	ba84 <dev_barrier>
    bde8:	e8bd8070 	pop	{r4, r5, r6, pc}
    bdec:	20215004 	.word	0x20215004
    bdf0:	20215060 	.word	0x20215060
    bdf4:	20215044 	.word	0x20215044
    bdf8:	2021504c 	.word	0x2021504c
    bdfc:	20215050 	.word	0x20215050
    be00:	20215048 	.word	0x20215048
    be04:	20215068 	.word	0x20215068

0000be08 <uart_init>:
    be08:	e92d4010 	push	{r4, lr}
    be0c:	e59f0004 	ldr	r0, [pc, #4]	; be18 <uart_init+0x10>
    be10:	ebffffcf 	bl	bd54 <uart_init_div>
    be14:	e8bd8010 	pop	{r4, pc}
    be18:	0000010e 	.word	0x0000010e

0000be1c <uart_rx_disable>:
    be1c:	e92d4010 	push	{r4, lr}
    be20:	ebffff17 	bl	ba84 <dev_barrier>
    be24:	e3a01002 	mov	r1, #2, 0
    be28:	e59f0008 	ldr	r0, [pc, #8]	; be38 <uart_rx_disable+0x1c>
    be2c:	ebfff082 	bl	803c <PUT32>
    be30:	ebffff13 	bl	ba84 <dev_barrier>
    be34:	e8bd8010 	pop	{r4, pc}
    be38:	20215060 	.word	0x20215060

0000be3c <uart_can_getc>:
    be3c:	e92d4010 	push	{r4, lr}
    be40:	e59f0008 	ldr	r0, [pc, #8]	; be50 <uart_can_getc+0x14>
    be44:	ebfff07e 	bl	8044 <GET32>
    be48:	e2000001 	and	r0, r0, #1, 0
    be4c:	e8bd8010 	pop	{r4, pc}
    be50:	20215064 	.word	0x20215064

0000be54 <uart_can_get8>:
    be54:	e92d4010 	push	{r4, lr}
    be58:	ebfffff7 	bl	be3c <uart_can_getc>
    be5c:	e8bd8010 	pop	{r4, pc}

0000be60 <uart_can_putc>:
    be60:	e92d4010 	push	{r4, lr}
    be64:	e59f0010 	ldr	r0, [pc, #16]	; be7c <uart_can_putc+0x1c>
    be68:	ebfff075 	bl	8044 <GET32>
    be6c:	e3100002 	tst	r0, #2, 0
    be70:	13a00001 	movne	r0, #1, 0
    be74:	03a00000 	moveq	r0, #0, 0
    be78:	e8bd8010 	pop	{r4, pc}
    be7c:	20215064 	.word	0x20215064

0000be80 <uart_can_put8>:
    be80:	e92d4010 	push	{r4, lr}
    be84:	ebfffff5 	bl	be60 <uart_can_putc>
    be88:	e8bd8010 	pop	{r4, pc}

0000be8c <uart_get8>:
    be8c:	e92d4010 	push	{r4, lr}
    be90:	ebfffefb 	bl	ba84 <dev_barrier>
    be94:	ea000000 	b	be9c <uart_get8+0x10>
    be98:	eb00006a 	bl	c048 <rpi_wait>
    be9c:	ebffffe6 	bl	be3c <uart_can_getc>
    bea0:	e3500000 	cmp	r0, #0, 0
    bea4:	0afffffb 	beq	be98 <uart_get8+0xc>
    bea8:	e59f0010 	ldr	r0, [pc, #16]	; bec0 <uart_get8+0x34>
    beac:	ebfff064 	bl	8044 <GET32>
    beb0:	e6ef4070 	uxtb	r4, r0
    beb4:	ebfffef2 	bl	ba84 <dev_barrier>
    beb8:	e1a00004 	mov	r0, r4
    bebc:	e8bd8010 	pop	{r4, pc}
    bec0:	20215040 	.word	0x20215040

0000bec4 <uart_put8>:
    bec4:	e92d4010 	push	{r4, lr}
    bec8:	e1a04000 	mov	r4, r0
    becc:	ebfffeec 	bl	ba84 <dev_barrier>
    bed0:	ea000000 	b	bed8 <uart_put8+0x14>
    bed4:	eb00005b 	bl	c048 <rpi_wait>
    bed8:	ebffffe0 	bl	be60 <uart_can_putc>
    bedc:	e3500000 	cmp	r0, #0, 0
    bee0:	0afffffb 	beq	bed4 <uart_put8+0x10>
    bee4:	e1a01004 	mov	r1, r4
    bee8:	e59f000c 	ldr	r0, [pc, #12]	; befc <uart_put8+0x38>
    beec:	ebfff052 	bl	803c <PUT32>
    bef0:	ebfffee3 	bl	ba84 <dev_barrier>
    bef4:	e3a00001 	mov	r0, #1, 0
    bef8:	e8bd8010 	pop	{r4, pc}
    befc:	20215040 	.word	0x20215040

0000bf00 <uart_has_data>:
    bf00:	e92d4010 	push	{r4, lr}
    bf04:	ebfffede 	bl	ba84 <dev_barrier>
    bf08:	ebffffcb 	bl	be3c <uart_can_getc>
    bf0c:	e8bd8010 	pop	{r4, pc}

0000bf10 <uart_tx_is_empty>:
    bf10:	e92d4010 	push	{r4, lr}
    bf14:	ebfffeda 	bl	ba84 <dev_barrier>
    bf18:	e59f000c 	ldr	r0, [pc, #12]	; bf2c <uart_tx_is_empty+0x1c>
    bf1c:	ebfff048 	bl	8044 <GET32>
    bf20:	e1a004a0 	lsr	r0, r0, #9
    bf24:	e2000001 	and	r0, r0, #1, 0
    bf28:	e8bd8010 	pop	{r4, pc}
    bf2c:	20215064 	.word	0x20215064

0000bf30 <uart_flush_tx>:
    bf30:	e92d4010 	push	{r4, lr}
    bf34:	ea000000 	b	bf3c <uart_flush_tx+0xc>
    bf38:	eb000042 	bl	c048 <rpi_wait>
    bf3c:	ebfffff3 	bl	bf10 <uart_tx_is_empty>
    bf40:	e3500000 	cmp	r0, #0, 0
    bf44:	0afffffb 	beq	bf38 <uart_flush_tx+0x8>
    bf48:	e8bd8010 	pop	{r4, pc}

0000bf4c <uart_disable>:
    bf4c:	e92d4010 	push	{r4, lr}
    bf50:	ebfffff6 	bl	bf30 <uart_flush_tx>
    bf54:	ebfffeca 	bl	ba84 <dev_barrier>
    bf58:	e3e01001 	mvn	r1, #1, 0
    bf5c:	e59f0008 	ldr	r0, [pc, #8]	; bf6c <uart_disable+0x20>
    bf60:	ebffff6b 	bl	bd14 <and_in32>
    bf64:	ebfffec6 	bl	ba84 <dev_barrier>
    bf68:	e8bd8010 	pop	{r4, pc}
    bf6c:	20215004 	.word	0x20215004

0000bf70 <using_staff_uart>:
    bf70:	e12fff1e 	bx	lr

0000bf74 <memset>:
    bf74:	e3520000 	cmp	r2, #0, 0
    bf78:	012fff1e 	bxeq	lr
    bf7c:	e3510000 	cmp	r1, #0, 0
    bf80:	1a000007 	bne	bfa4 <memset+0x30>
    bf84:	e3100007 	tst	r0, #7, 0
    bf88:	1a000001 	bne	bf94 <memset+0x20>
    bf8c:	e3120007 	tst	r2, #7, 0
    bf90:	0a000011 	beq	bfdc <memset+0x68>
    bf94:	e3100003 	tst	r0, #3, 0
    bf98:	1a000001 	bne	bfa4 <memset+0x30>
    bf9c:	e3120003 	tst	r2, #3, 0
    bfa0:	0a000001 	beq	bfac <memset+0x38>
    bfa4:	e0802002 	add	r2, r0, r2
    bfa8:	ea000008 	b	bfd0 <memset+0x5c>
    bfac:	e1a02122 	lsr	r2, r2, #2
    bfb0:	ea000001 	b	bfbc <memset+0x48>
    bfb4:	e4801004 	str	r1, [r0], #4
    bfb8:	e1a02003 	mov	r2, r3
    bfbc:	e2423001 	sub	r3, r2, #1, 0
    bfc0:	e3520000 	cmp	r2, #0, 0
    bfc4:	1afffffa 	bne	bfb4 <memset+0x40>
    bfc8:	e12fff1e 	bx	lr
    bfcc:	e4c01001 	strb	r1, [r0], #1
    bfd0:	e1500002 	cmp	r0, r2
    bfd4:	3afffffc 	bcc	bfcc <memset+0x58>
    bfd8:	e12fff1e 	bx	lr
    bfdc:	e1a021a2 	lsr	r2, r2, #3
    bfe0:	e2423001 	sub	r3, r2, #1, 0
    bfe4:	e3520000 	cmp	r2, #0, 0
    bfe8:	012fff1e 	bxeq	lr
    bfec:	e92d0030 	push	{r4, r5}
    bff0:	e1a04001 	mov	r4, r1
    bff4:	e1a05fc1 	asr	r5, r1, #31
    bff8:	e0c040f8 	strd	r4, [r0], #8
    bffc:	e1a02003 	mov	r2, r3
    c000:	e2433001 	sub	r3, r3, #1, 0
    c004:	e3520000 	cmp	r2, #0, 0
    c008:	1afffff8 	bne	bff0 <memset+0x7c>
    c00c:	e8bd0030 	pop	{r4, r5}
    c010:	e12fff1e 	bx	lr

0000c014 <putk>:
    c014:	e92d4010 	push	{r4, lr}
    c018:	e1a04000 	mov	r4, r0
    c01c:	e5d40000 	ldrb	r0, [r4]
    c020:	e3500000 	cmp	r0, #0, 0
    c024:	0a000004 	beq	c03c <putk+0x28>
    c028:	e59f3014 	ldr	r3, [pc, #20]	; c044 <putk+0x30>
    c02c:	e5933000 	ldr	r3, [r3]
    c030:	e12fff33 	blx	r3
    c034:	e2844001 	add	r4, r4, #1, 0
    c038:	eafffff7 	b	c01c <putk+0x8>
    c03c:	e3a00001 	mov	r0, #1, 0
    c040:	e8bd8010 	pop	{r4, pc}
    c044:	0000d664 	.word	0x0000d664

0000c048 <rpi_wait>:
    c048:	e12fff1e 	bx	lr

0000c04c <__udivsi3>:
    c04c:	e2512001 	subs	r2, r1, #1, 0
    c050:	012fff1e 	bxeq	lr
    c054:	3a000036 	bcc	c134 <__udivsi3+0xe8>
    c058:	e1500001 	cmp	r0, r1
    c05c:	9a000022 	bls	c0ec <__udivsi3+0xa0>
    c060:	e1110002 	tst	r1, r2
    c064:	0a000023 	beq	c0f8 <__udivsi3+0xac>
    c068:	e311020e 	tst	r1, #-536870912	; 0xe0000000
    c06c:	01a01181 	lsleq	r1, r1, #3
    c070:	03a03008 	moveq	r3, #8, 0
    c074:	13a03001 	movne	r3, #1, 0
    c078:	e3510201 	cmp	r1, #268435456	; 0x10000000
    c07c:	31510000 	cmpcc	r1, r0
    c080:	31a01201 	lslcc	r1, r1, #4
    c084:	31a03203 	lslcc	r3, r3, #4
    c088:	3afffffa 	bcc	c078 <__udivsi3+0x2c>
    c08c:	e3510102 	cmp	r1, #-2147483648	; 0x80000000
    c090:	31510000 	cmpcc	r1, r0
    c094:	31a01081 	lslcc	r1, r1, #1
    c098:	31a03083 	lslcc	r3, r3, #1
    c09c:	3afffffa 	bcc	c08c <__udivsi3+0x40>
    c0a0:	e3a02000 	mov	r2, #0, 0
    c0a4:	e1500001 	cmp	r0, r1
    c0a8:	20400001 	subcs	r0, r0, r1
    c0ac:	21822003 	orrcs	r2, r2, r3
    c0b0:	e15000a1 	cmp	r0, r1, lsr #1
    c0b4:	204000a1 	subcs	r0, r0, r1, lsr #1
    c0b8:	218220a3 	orrcs	r2, r2, r3, lsr #1
    c0bc:	e1500121 	cmp	r0, r1, lsr #2
    c0c0:	20400121 	subcs	r0, r0, r1, lsr #2
    c0c4:	21822123 	orrcs	r2, r2, r3, lsr #2
    c0c8:	e15001a1 	cmp	r0, r1, lsr #3
    c0cc:	204001a1 	subcs	r0, r0, r1, lsr #3
    c0d0:	218221a3 	orrcs	r2, r2, r3, lsr #3
    c0d4:	e3500000 	cmp	r0, #0, 0
    c0d8:	11b03223 	lsrsne	r3, r3, #4
    c0dc:	11a01221 	lsrne	r1, r1, #4
    c0e0:	1affffef 	bne	c0a4 <__udivsi3+0x58>
    c0e4:	e1a00002 	mov	r0, r2
    c0e8:	e12fff1e 	bx	lr
    c0ec:	03a00001 	moveq	r0, #1, 0
    c0f0:	13a00000 	movne	r0, #0, 0
    c0f4:	e12fff1e 	bx	lr
    c0f8:	e3510801 	cmp	r1, #65536	; 0x10000
    c0fc:	21a01821 	lsrcs	r1, r1, #16
    c100:	23a02010 	movcs	r2, #16, 0
    c104:	33a02000 	movcc	r2, #0, 0
    c108:	e3510c01 	cmp	r1, #256	; 0x100
    c10c:	21a01421 	lsrcs	r1, r1, #8
    c110:	22822008 	addcs	r2, r2, #8, 0
    c114:	e3510010 	cmp	r1, #16, 0
    c118:	21a01221 	lsrcs	r1, r1, #4
    c11c:	22822004 	addcs	r2, r2, #4, 0
    c120:	e3510004 	cmp	r1, #4, 0
    c124:	82822003 	addhi	r2, r2, #3, 0
    c128:	908220a1 	addls	r2, r2, r1, lsr #1
    c12c:	e1a00230 	lsr	r0, r0, r2
    c130:	e12fff1e 	bx	lr
    c134:	e3500000 	cmp	r0, #0, 0
    c138:	13e00000 	mvnne	r0, #0, 0
    c13c:	ea000059 	b	c2a8 <__aeabi_idiv0>

0000c140 <__aeabi_uidivmod>:
    c140:	e3510000 	cmp	r1, #0, 0
    c144:	0afffffa 	beq	c134 <__udivsi3+0xe8>
    c148:	e92d4003 	push	{r0, r1, lr}
    c14c:	ebffffbe 	bl	c04c <__udivsi3>
    c150:	e8bd4006 	pop	{r1, r2, lr}
    c154:	e0030092 	mul	r3, r2, r0
    c158:	e0411003 	sub	r1, r1, r3
    c15c:	e12fff1e 	bx	lr

0000c160 <__divsi3>:
    c160:	e3510000 	cmp	r1, #0, 0
    c164:	0a000043 	beq	c278 <.divsi3_skip_div0_test+0x110>

0000c168 <.divsi3_skip_div0_test>:
    c168:	e020c001 	eor	ip, r0, r1
    c16c:	42611000 	rsbmi	r1, r1, #0, 0
    c170:	e2512001 	subs	r2, r1, #1, 0
    c174:	0a000027 	beq	c218 <.divsi3_skip_div0_test+0xb0>
    c178:	e1b03000 	movs	r3, r0
    c17c:	42603000 	rsbmi	r3, r0, #0, 0
    c180:	e1530001 	cmp	r3, r1
    c184:	9a000026 	bls	c224 <.divsi3_skip_div0_test+0xbc>
    c188:	e1110002 	tst	r1, r2
    c18c:	0a000028 	beq	c234 <.divsi3_skip_div0_test+0xcc>
    c190:	e311020e 	tst	r1, #-536870912	; 0xe0000000
    c194:	01a01181 	lsleq	r1, r1, #3
    c198:	03a02008 	moveq	r2, #8, 0
    c19c:	13a02001 	movne	r2, #1, 0
    c1a0:	e3510201 	cmp	r1, #268435456	; 0x10000000
    c1a4:	31510003 	cmpcc	r1, r3
    c1a8:	31a01201 	lslcc	r1, r1, #4
    c1ac:	31a02202 	lslcc	r2, r2, #4
    c1b0:	3afffffa 	bcc	c1a0 <.divsi3_skip_div0_test+0x38>
    c1b4:	e3510102 	cmp	r1, #-2147483648	; 0x80000000
    c1b8:	31510003 	cmpcc	r1, r3
    c1bc:	31a01081 	lslcc	r1, r1, #1
    c1c0:	31a02082 	lslcc	r2, r2, #1
    c1c4:	3afffffa 	bcc	c1b4 <.divsi3_skip_div0_test+0x4c>
    c1c8:	e3a00000 	mov	r0, #0, 0
    c1cc:	e1530001 	cmp	r3, r1
    c1d0:	20433001 	subcs	r3, r3, r1
    c1d4:	21800002 	orrcs	r0, r0, r2
    c1d8:	e15300a1 	cmp	r3, r1, lsr #1
    c1dc:	204330a1 	subcs	r3, r3, r1, lsr #1
    c1e0:	218000a2 	orrcs	r0, r0, r2, lsr #1
    c1e4:	e1530121 	cmp	r3, r1, lsr #2
    c1e8:	20433121 	subcs	r3, r3, r1, lsr #2
    c1ec:	21800122 	orrcs	r0, r0, r2, lsr #2
    c1f0:	e15301a1 	cmp	r3, r1, lsr #3
    c1f4:	204331a1 	subcs	r3, r3, r1, lsr #3
    c1f8:	218001a2 	orrcs	r0, r0, r2, lsr #3
    c1fc:	e3530000 	cmp	r3, #0, 0
    c200:	11b02222 	lsrsne	r2, r2, #4
    c204:	11a01221 	lsrne	r1, r1, #4
    c208:	1affffef 	bne	c1cc <.divsi3_skip_div0_test+0x64>
    c20c:	e35c0000 	cmp	ip, #0, 0
    c210:	42600000 	rsbmi	r0, r0, #0, 0
    c214:	e12fff1e 	bx	lr
    c218:	e13c0000 	teq	ip, r0
    c21c:	42600000 	rsbmi	r0, r0, #0, 0
    c220:	e12fff1e 	bx	lr
    c224:	33a00000 	movcc	r0, #0, 0
    c228:	01a00fcc 	asreq	r0, ip, #31
    c22c:	03800001 	orreq	r0, r0, #1, 0
    c230:	e12fff1e 	bx	lr
    c234:	e3510801 	cmp	r1, #65536	; 0x10000
    c238:	21a01821 	lsrcs	r1, r1, #16
    c23c:	23a02010 	movcs	r2, #16, 0
    c240:	33a02000 	movcc	r2, #0, 0
    c244:	e3510c01 	cmp	r1, #256	; 0x100
    c248:	21a01421 	lsrcs	r1, r1, #8
    c24c:	22822008 	addcs	r2, r2, #8, 0
    c250:	e3510010 	cmp	r1, #16, 0
    c254:	21a01221 	lsrcs	r1, r1, #4
    c258:	22822004 	addcs	r2, r2, #4, 0
    c25c:	e3510004 	cmp	r1, #4, 0
    c260:	82822003 	addhi	r2, r2, #3, 0
    c264:	908220a1 	addls	r2, r2, r1, lsr #1
    c268:	e35c0000 	cmp	ip, #0, 0
    c26c:	e1a00233 	lsr	r0, r3, r2
    c270:	42600000 	rsbmi	r0, r0, #0, 0
    c274:	e12fff1e 	bx	lr
    c278:	e3500000 	cmp	r0, #0, 0
    c27c:	c3e00102 	mvngt	r0, #-2147483648	; 0x80000000
    c280:	b3a00102 	movlt	r0, #-2147483648	; 0x80000000
    c284:	ea000007 	b	c2a8 <__aeabi_idiv0>

0000c288 <__aeabi_idivmod>:
    c288:	e3510000 	cmp	r1, #0, 0
    c28c:	0afffff9 	beq	c278 <.divsi3_skip_div0_test+0x110>
    c290:	e92d4003 	push	{r0, r1, lr}
    c294:	ebffffb3 	bl	c168 <.divsi3_skip_div0_test>
    c298:	e8bd4006 	pop	{r1, r2, lr}
    c29c:	e0030092 	mul	r3, r2, r0
    c2a0:	e0411003 	sub	r1, r1, r3
    c2a4:	e12fff1e 	bx	lr

0000c2a8 <__aeabi_idiv0>:
    c2a8:	e12fff1e 	bx	lr

0000c2ac <__aeabi_d2lz>:
    c2ac:	e92d4070 	push	{r4, r5, r6, lr}
    c2b0:	e3a02000 	mov	r2, #0, 0
    c2b4:	e3a03000 	mov	r3, #0, 0
    c2b8:	e1a05000 	mov	r5, r0
    c2bc:	e1a04001 	mov	r4, r1
    c2c0:	eb000209 	bl	caec <__aeabi_dcmplt>
    c2c4:	e3500000 	cmp	r0, #0, 0
    c2c8:	e1a00005 	mov	r0, r5
    c2cc:	1a000003 	bne	c2e0 <__aeabi_d2lz+0x34>
    c2d0:	e1a01004 	mov	r1, r4
    c2d4:	eb000007 	bl	c2f8 <__aeabi_d2ulz>
    c2d8:	e8bd4070 	pop	{r4, r5, r6, lr}
    c2dc:	e12fff1e 	bx	lr
    c2e0:	e2841102 	add	r1, r4, #-2147483648	; 0x80000000
    c2e4:	eb000003 	bl	c2f8 <__aeabi_d2ulz>
    c2e8:	e2700000 	rsbs	r0, r0, #0, 0
    c2ec:	e2e11000 	rsc	r1, r1, #0, 0
    c2f0:	e8bd4070 	pop	{r4, r5, r6, lr}
    c2f4:	e12fff1e 	bx	lr

0000c2f8 <__aeabi_d2ulz>:
    c2f8:	e92d40d0 	push	{r4, r6, r7, lr}
    c2fc:	e3a02000 	mov	r2, #0, 0
    c300:	e59f3044 	ldr	r3, [pc, #68]	; c34c <__aeabi_d2ulz+0x54>
    c304:	e1a06000 	mov	r6, r0
    c308:	e1a07001 	mov	r7, r1
    c30c:	eb000010 	bl	c354 <__aeabi_dmul>
    c310:	eb00020d 	bl	cb4c <__aeabi_d2uiz>
    c314:	e1a04000 	mov	r4, r0
    c318:	eb000178 	bl	c900 <__aeabi_ui2d>
    c31c:	e3a02000 	mov	r2, #0, 0
    c320:	e59f3028 	ldr	r3, [pc, #40]	; c350 <__aeabi_d2ulz+0x58>
    c324:	eb00000a 	bl	c354 <__aeabi_dmul>
    c328:	e1a02000 	mov	r2, r0
    c32c:	e1a03001 	mov	r3, r1
    c330:	e1a00006 	mov	r0, r6
    c334:	e1a01007 	mov	r1, r7
    c338:	eb0000ab 	bl	c5ec <__aeabi_dsub>
    c33c:	eb000202 	bl	cb4c <__aeabi_d2uiz>
    c340:	e1a01004 	mov	r1, r4
    c344:	e8bd40d0 	pop	{r4, r6, r7, lr}
    c348:	e12fff1e 	bx	lr
    c34c:	3df00000 	.word	0x3df00000
    c350:	41f00000 	.word	0x41f00000

0000c354 <__aeabi_dmul>:
    c354:	e92d4070 	push	{r4, r5, r6, lr}
    c358:	e3a0c0ff 	mov	ip, #255, 0	; 0xff
    c35c:	e38ccc07 	orr	ip, ip, #1792	; 0x700
    c360:	e01c4a21 	ands	r4, ip, r1, lsr #20
    c364:	101c5a23 	andsne	r5, ip, r3, lsr #20
    c368:	1134000c 	teqne	r4, ip
    c36c:	1135000c 	teqne	r5, ip
    c370:	0b000075 	bleq	c54c <__aeabi_dmul+0x1f8>
    c374:	e0844005 	add	r4, r4, r5
    c378:	e0216003 	eor	r6, r1, r3
    c37c:	e1c11a8c 	bic	r1, r1, ip, lsl #21
    c380:	e1c33a8c 	bic	r3, r3, ip, lsl #21
    c384:	e1905601 	orrs	r5, r0, r1, lsl #12
    c388:	11925603 	orrsne	r5, r2, r3, lsl #12
    c38c:	e3811601 	orr	r1, r1, #1048576	; 0x100000
    c390:	e3833601 	orr	r3, r3, #1048576	; 0x100000
    c394:	0a00001d 	beq	c410 <__aeabi_dmul+0xbc>
    c398:	e08ec290 	umull	ip, lr, r0, r2
    c39c:	e3a05000 	mov	r5, #0, 0
    c3a0:	e0a5e291 	umlal	lr, r5, r1, r2
    c3a4:	e2062102 	and	r2, r6, #-2147483648	; 0x80000000
    c3a8:	e0a5e390 	umlal	lr, r5, r0, r3
    c3ac:	e3a06000 	mov	r6, #0, 0
    c3b0:	e0a65391 	umlal	r5, r6, r1, r3
    c3b4:	e33c0000 	teq	ip, #0, 0
    c3b8:	138ee001 	orrne	lr, lr, #1, 0
    c3bc:	e24440ff 	sub	r4, r4, #255, 0	; 0xff
    c3c0:	e3560c02 	cmp	r6, #512	; 0x200
    c3c4:	e2c44c03 	sbc	r4, r4, #768	; 0x300
    c3c8:	2a000002 	bcs	c3d8 <__aeabi_dmul+0x84>
    c3cc:	e1b0e08e 	lsls	lr, lr, #1
    c3d0:	e0b55005 	adcs	r5, r5, r5
    c3d4:	e0a66006 	adc	r6, r6, r6
    c3d8:	e1821586 	orr	r1, r2, r6, lsl #11
    c3dc:	e1811aa5 	orr	r1, r1, r5, lsr #21
    c3e0:	e1a00585 	lsl	r0, r5, #11
    c3e4:	e1800aae 	orr	r0, r0, lr, lsr #21
    c3e8:	e1a0e58e 	lsl	lr, lr, #11
    c3ec:	e254c0fd 	subs	ip, r4, #253, 0	; 0xfd
    c3f0:	835c0c07 	cmphi	ip, #1792	; 0x700
    c3f4:	8a000011 	bhi	c440 <__aeabi_dmul+0xec>
    c3f8:	e35e0102 	cmp	lr, #-2147483648	; 0x80000000
    c3fc:	01b0e0a0 	lsrseq	lr, r0, #1
    c400:	e2b00000 	adcs	r0, r0, #0, 0
    c404:	e0a11a04 	adc	r1, r1, r4, lsl #20
    c408:	e8bd4070 	pop	{r4, r5, r6, lr}
    c40c:	e12fff1e 	bx	lr
    c410:	e2066102 	and	r6, r6, #-2147483648	; 0x80000000
    c414:	e1861001 	orr	r1, r6, r1
    c418:	e1800002 	orr	r0, r0, r2
    c41c:	e0211003 	eor	r1, r1, r3
    c420:	e05440ac 	subs	r4, r4, ip, lsr #1
    c424:	c074500c 	rsbsgt	r5, r4, ip
    c428:	c1811a04 	orrgt	r1, r1, r4, lsl #20
    c42c:	c8bd4070 	popgt	{r4, r5, r6, lr}
    c430:	c12fff1e 	bxgt	lr
    c434:	e3811601 	orr	r1, r1, #1048576	; 0x100000
    c438:	e3a0e000 	mov	lr, #0, 0
    c43c:	e2544001 	subs	r4, r4, #1, 0
    c440:	ca00005d 	bgt	c5bc <__aeabi_dmul+0x268>
    c444:	e3740036 	cmn	r4, #54, 0	; 0x36
    c448:	d3a00000 	movle	r0, #0, 0
    c44c:	d2011102 	andle	r1, r1, #-2147483648	; 0x80000000
    c450:	d8bd4070 	pople	{r4, r5, r6, lr}
    c454:	d12fff1e 	bxle	lr
    c458:	e2644000 	rsb	r4, r4, #0, 0
    c45c:	e2544020 	subs	r4, r4, #32, 0
    c460:	aa00001a 	bge	c4d0 <__aeabi_dmul+0x17c>
    c464:	e294400c 	adds	r4, r4, #12, 0
    c468:	ca00000c 	bgt	c4a0 <__aeabi_dmul+0x14c>
    c46c:	e2844014 	add	r4, r4, #20, 0
    c470:	e2645020 	rsb	r5, r4, #32, 0
    c474:	e1a03510 	lsl	r3, r0, r5
    c478:	e1a00430 	lsr	r0, r0, r4
    c47c:	e1800511 	orr	r0, r0, r1, lsl r5
    c480:	e2012102 	and	r2, r1, #-2147483648	; 0x80000000
    c484:	e3c11102 	bic	r1, r1, #-2147483648	; 0x80000000
    c488:	e0900fa3 	adds	r0, r0, r3, lsr #31
    c48c:	e0a21431 	adc	r1, r2, r1, lsr r4
    c490:	e19ee083 	orrs	lr, lr, r3, lsl #1
    c494:	01c00fa3 	biceq	r0, r0, r3, lsr #31
    c498:	e8bd4070 	pop	{r4, r5, r6, lr}
    c49c:	e12fff1e 	bx	lr
    c4a0:	e264400c 	rsb	r4, r4, #12, 0
    c4a4:	e2645020 	rsb	r5, r4, #32, 0
    c4a8:	e1a03410 	lsl	r3, r0, r4
    c4ac:	e1a00530 	lsr	r0, r0, r5
    c4b0:	e1800411 	orr	r0, r0, r1, lsl r4
    c4b4:	e2011102 	and	r1, r1, #-2147483648	; 0x80000000
    c4b8:	e0900fa3 	adds	r0, r0, r3, lsr #31
    c4bc:	e2a11000 	adc	r1, r1, #0, 0
    c4c0:	e19ee083 	orrs	lr, lr, r3, lsl #1
    c4c4:	01c00fa3 	biceq	r0, r0, r3, lsr #31
    c4c8:	e8bd4070 	pop	{r4, r5, r6, lr}
    c4cc:	e12fff1e 	bx	lr
    c4d0:	e2645020 	rsb	r5, r4, #32, 0
    c4d4:	e18ee510 	orr	lr, lr, r0, lsl r5
    c4d8:	e1a03430 	lsr	r3, r0, r4
    c4dc:	e1833511 	orr	r3, r3, r1, lsl r5
    c4e0:	e1a00431 	lsr	r0, r1, r4
    c4e4:	e2011102 	and	r1, r1, #-2147483648	; 0x80000000
    c4e8:	e1c00431 	bic	r0, r0, r1, lsr r4
    c4ec:	e0800fa3 	add	r0, r0, r3, lsr #31
    c4f0:	e19ee083 	orrs	lr, lr, r3, lsl #1
    c4f4:	01c00fa3 	biceq	r0, r0, r3, lsr #31
    c4f8:	e8bd4070 	pop	{r4, r5, r6, lr}
    c4fc:	e12fff1e 	bx	lr
    c500:	e3340000 	teq	r4, #0, 0
    c504:	1a000008 	bne	c52c <__aeabi_dmul+0x1d8>
    c508:	e2016102 	and	r6, r1, #-2147483648	; 0x80000000
    c50c:	e1b00080 	lsls	r0, r0, #1
    c510:	e0a11001 	adc	r1, r1, r1
    c514:	e3110601 	tst	r1, #1048576	; 0x100000
    c518:	02444001 	subeq	r4, r4, #1, 0
    c51c:	0afffffa 	beq	c50c <__aeabi_dmul+0x1b8>
    c520:	e1811006 	orr	r1, r1, r6
    c524:	e3350000 	teq	r5, #0, 0
    c528:	112fff1e 	bxne	lr
    c52c:	e2036102 	and	r6, r3, #-2147483648	; 0x80000000
    c530:	e1b02082 	lsls	r2, r2, #1
    c534:	e0a33003 	adc	r3, r3, r3
    c538:	e3130601 	tst	r3, #1048576	; 0x100000
    c53c:	02455001 	subeq	r5, r5, #1, 0
    c540:	0afffffa 	beq	c530 <__aeabi_dmul+0x1dc>
    c544:	e1833006 	orr	r3, r3, r6
    c548:	e12fff1e 	bx	lr
    c54c:	e134000c 	teq	r4, ip
    c550:	e00c5a23 	and	r5, ip, r3, lsr #20
    c554:	1135000c 	teqne	r5, ip
    c558:	0a000007 	beq	c57c <__aeabi_dmul+0x228>
    c55c:	e1906081 	orrs	r6, r0, r1, lsl #1
    c560:	11926083 	orrsne	r6, r2, r3, lsl #1
    c564:	1affffe5 	bne	c500 <__aeabi_dmul+0x1ac>
    c568:	e0211003 	eor	r1, r1, r3
    c56c:	e2011102 	and	r1, r1, #-2147483648	; 0x80000000
    c570:	e3a00000 	mov	r0, #0, 0
    c574:	e8bd4070 	pop	{r4, r5, r6, lr}
    c578:	e12fff1e 	bx	lr
    c57c:	e1906081 	orrs	r6, r0, r1, lsl #1
    c580:	01a00002 	moveq	r0, r2
    c584:	01a01003 	moveq	r1, r3
    c588:	11926083 	orrsne	r6, r2, r3, lsl #1
    c58c:	0a000010 	beq	c5d4 <__aeabi_dmul+0x280>
    c590:	e134000c 	teq	r4, ip
    c594:	1a000001 	bne	c5a0 <__aeabi_dmul+0x24c>
    c598:	e1906601 	orrs	r6, r0, r1, lsl #12
    c59c:	1a00000c 	bne	c5d4 <__aeabi_dmul+0x280>
    c5a0:	e135000c 	teq	r5, ip
    c5a4:	1a000003 	bne	c5b8 <__aeabi_dmul+0x264>
    c5a8:	e1926603 	orrs	r6, r2, r3, lsl #12
    c5ac:	11a00002 	movne	r0, r2
    c5b0:	11a01003 	movne	r1, r3
    c5b4:	1a000006 	bne	c5d4 <__aeabi_dmul+0x280>
    c5b8:	e0211003 	eor	r1, r1, r3
    c5bc:	e2011102 	and	r1, r1, #-2147483648	; 0x80000000
    c5c0:	e381147f 	orr	r1, r1, #2130706432	; 0x7f000000
    c5c4:	e381160f 	orr	r1, r1, #15728640	; 0xf00000
    c5c8:	e3a00000 	mov	r0, #0, 0
    c5cc:	e8bd4070 	pop	{r4, r5, r6, lr}
    c5d0:	e12fff1e 	bx	lr
    c5d4:	e381147f 	orr	r1, r1, #2130706432	; 0x7f000000
    c5d8:	e381173e 	orr	r1, r1, #16252928	; 0xf80000
    c5dc:	e8bd4070 	pop	{r4, r5, r6, lr}
    c5e0:	e12fff1e 	bx	lr

0000c5e4 <__aeabi_drsub>:
    c5e4:	e2211102 	eor	r1, r1, #-2147483648	; 0x80000000
    c5e8:	ea000000 	b	c5f0 <__adddf3>

0000c5ec <__aeabi_dsub>:
    c5ec:	e2233102 	eor	r3, r3, #-2147483648	; 0x80000000

0000c5f0 <__adddf3>:
    c5f0:	e92d4030 	push	{r4, r5, lr}
    c5f4:	e1a04081 	lsl	r4, r1, #1
    c5f8:	e1a05083 	lsl	r5, r3, #1
    c5fc:	e1340005 	teq	r4, r5
    c600:	01300002 	teqeq	r0, r2
    c604:	1194c000 	orrsne	ip, r4, r0
    c608:	1195c002 	orrsne	ip, r5, r2
    c60c:	11f0cac4 	mvnsne	ip, r4, asr #21
    c610:	11f0cac5 	mvnsne	ip, r5, asr #21
    c614:	0a00008c 	beq	c84c <__adddf3+0x25c>
    c618:	e1a04aa4 	lsr	r4, r4, #21
    c61c:	e0745aa5 	rsbs	r5, r4, r5, lsr #21
    c620:	b2655000 	rsblt	r5, r5, #0, 0
    c624:	da000006 	ble	c644 <__adddf3+0x54>
    c628:	e0844005 	add	r4, r4, r5
    c62c:	e0202002 	eor	r2, r0, r2
    c630:	e0213003 	eor	r3, r1, r3
    c634:	e0220000 	eor	r0, r2, r0
    c638:	e0231001 	eor	r1, r3, r1
    c63c:	e0202002 	eor	r2, r0, r2
    c640:	e0213003 	eor	r3, r1, r3
    c644:	e3550036 	cmp	r5, #54, 0	; 0x36
    c648:	88bd4030 	pophi	{r4, r5, lr}
    c64c:	812fff1e 	bxhi	lr
    c650:	e3110102 	tst	r1, #-2147483648	; 0x80000000
    c654:	e1a01601 	lsl	r1, r1, #12
    c658:	e3a0c601 	mov	ip, #1048576	; 0x100000
    c65c:	e18c1621 	orr	r1, ip, r1, lsr #12
    c660:	0a000001 	beq	c66c <__adddf3+0x7c>
    c664:	e2700000 	rsbs	r0, r0, #0, 0
    c668:	e2e11000 	rsc	r1, r1, #0, 0
    c66c:	e3130102 	tst	r3, #-2147483648	; 0x80000000
    c670:	e1a03603 	lsl	r3, r3, #12
    c674:	e18c3623 	orr	r3, ip, r3, lsr #12
    c678:	0a000001 	beq	c684 <__adddf3+0x94>
    c67c:	e2722000 	rsbs	r2, r2, #0, 0
    c680:	e2e33000 	rsc	r3, r3, #0, 0
    c684:	e1340005 	teq	r4, r5
    c688:	0a000069 	beq	c834 <__adddf3+0x244>
    c68c:	e2444001 	sub	r4, r4, #1, 0
    c690:	e275e020 	rsbs	lr, r5, #32, 0
    c694:	ba000005 	blt	c6b0 <__adddf3+0xc0>
    c698:	e1a0ce12 	lsl	ip, r2, lr
    c69c:	e0900532 	adds	r0, r0, r2, lsr r5
    c6a0:	e2a11000 	adc	r1, r1, #0, 0
    c6a4:	e0900e13 	adds	r0, r0, r3, lsl lr
    c6a8:	e0b11553 	adcs	r1, r1, r3, asr r5
    c6ac:	ea000006 	b	c6cc <__adddf3+0xdc>
    c6b0:	e2455020 	sub	r5, r5, #32, 0
    c6b4:	e28ee020 	add	lr, lr, #32, 0
    c6b8:	e3520001 	cmp	r2, #1, 0
    c6bc:	e1a0ce13 	lsl	ip, r3, lr
    c6c0:	238cc002 	orrcs	ip, ip, #2, 0
    c6c4:	e0900553 	adds	r0, r0, r3, asr r5
    c6c8:	e0b11fc3 	adcs	r1, r1, r3, asr #31
    c6cc:	e2015102 	and	r5, r1, #-2147483648	; 0x80000000
    c6d0:	5a000002 	bpl	c6e0 <__adddf3+0xf0>
    c6d4:	e27cc000 	rsbs	ip, ip, #0, 0
    c6d8:	e2f00000 	rscs	r0, r0, #0, 0
    c6dc:	e2e11000 	rsc	r1, r1, #0, 0
    c6e0:	e3510601 	cmp	r1, #1048576	; 0x100000
    c6e4:	3a00000f 	bcc	c728 <__adddf3+0x138>
    c6e8:	e3510602 	cmp	r1, #2097152	; 0x200000
    c6ec:	3a000006 	bcc	c70c <__adddf3+0x11c>
    c6f0:	e1b010a1 	lsrs	r1, r1, #1
    c6f4:	e1b00060 	rrxs	r0, r0
    c6f8:	e1a0c06c 	rrx	ip, ip
    c6fc:	e2844001 	add	r4, r4, #1, 0
    c700:	e1a02a84 	lsl	r2, r4, #21
    c704:	e3720501 	cmn	r2, #4194304	; 0x400000
    c708:	2a00006b 	bcs	c8bc <__adddf3+0x2cc>
    c70c:	e35c0102 	cmp	ip, #-2147483648	; 0x80000000
    c710:	01b0c0a0 	lsrseq	ip, r0, #1
    c714:	e2b00000 	adcs	r0, r0, #0, 0
    c718:	e0a11a04 	adc	r1, r1, r4, lsl #20
    c71c:	e1811005 	orr	r1, r1, r5
    c720:	e8bd4030 	pop	{r4, r5, lr}
    c724:	e12fff1e 	bx	lr
    c728:	e1b0c08c 	lsls	ip, ip, #1
    c72c:	e0b00000 	adcs	r0, r0, r0
    c730:	e0a11001 	adc	r1, r1, r1
    c734:	e2544001 	subs	r4, r4, #1, 0
    c738:	23510601 	cmpcs	r1, #1048576	; 0x100000
    c73c:	2afffff2 	bcs	c70c <__adddf3+0x11c>
    c740:	e3310000 	teq	r1, #0, 0
    c744:	13a03014 	movne	r3, #20, 0
    c748:	03a03034 	moveq	r3, #52, 0	; 0x34
    c74c:	01a01000 	moveq	r1, r0
    c750:	03a00000 	moveq	r0, #0, 0
    c754:	e1a02001 	mov	r2, r1
    c758:	e3520801 	cmp	r2, #65536	; 0x10000
    c75c:	21a02822 	lsrcs	r2, r2, #16
    c760:	22433010 	subcs	r3, r3, #16, 0
    c764:	e3520c01 	cmp	r2, #256	; 0x100
    c768:	21a02422 	lsrcs	r2, r2, #8
    c76c:	22433008 	subcs	r3, r3, #8, 0
    c770:	e3520010 	cmp	r2, #16, 0
    c774:	21a02222 	lsrcs	r2, r2, #4
    c778:	22433004 	subcs	r3, r3, #4, 0
    c77c:	e3520004 	cmp	r2, #4, 0
    c780:	22433002 	subcs	r3, r3, #2, 0
    c784:	304330a2 	subcc	r3, r3, r2, lsr #1
    c788:	e04331a2 	sub	r3, r3, r2, lsr #3
    c78c:	e2532020 	subs	r2, r3, #32, 0
    c790:	aa000007 	bge	c7b4 <__adddf3+0x1c4>
    c794:	e292200c 	adds	r2, r2, #12, 0
    c798:	da000004 	ble	c7b0 <__adddf3+0x1c0>
    c79c:	e282c014 	add	ip, r2, #20, 0
    c7a0:	e262200c 	rsb	r2, r2, #12, 0
    c7a4:	e1a00c11 	lsl	r0, r1, ip
    c7a8:	e1a01231 	lsr	r1, r1, r2
    c7ac:	ea000004 	b	c7c4 <__adddf3+0x1d4>
    c7b0:	e2822014 	add	r2, r2, #20, 0
    c7b4:	d262c020 	rsble	ip, r2, #32, 0
    c7b8:	e1a01211 	lsl	r1, r1, r2
    c7bc:	d1811c30 	orrle	r1, r1, r0, lsr ip
    c7c0:	d1a00210 	lslle	r0, r0, r2
    c7c4:	e0544003 	subs	r4, r4, r3
    c7c8:	a0811a04 	addge	r1, r1, r4, lsl #20
    c7cc:	a1811005 	orrge	r1, r1, r5
    c7d0:	a8bd4030 	popge	{r4, r5, lr}
    c7d4:	a12fff1e 	bxge	lr
    c7d8:	e1e04004 	mvn	r4, r4
    c7dc:	e254401f 	subs	r4, r4, #31, 0
    c7e0:	aa00000f 	bge	c824 <__adddf3+0x234>
    c7e4:	e294400c 	adds	r4, r4, #12, 0
    c7e8:	ca000006 	bgt	c808 <__adddf3+0x218>
    c7ec:	e2844014 	add	r4, r4, #20, 0
    c7f0:	e2642020 	rsb	r2, r4, #32, 0
    c7f4:	e1a00430 	lsr	r0, r0, r4
    c7f8:	e1800211 	orr	r0, r0, r1, lsl r2
    c7fc:	e1851431 	orr	r1, r5, r1, lsr r4
    c800:	e8bd4030 	pop	{r4, r5, lr}
    c804:	e12fff1e 	bx	lr
    c808:	e264400c 	rsb	r4, r4, #12, 0
    c80c:	e2642020 	rsb	r2, r4, #32, 0
    c810:	e1a00230 	lsr	r0, r0, r2
    c814:	e1800411 	orr	r0, r0, r1, lsl r4
    c818:	e1a01005 	mov	r1, r5
    c81c:	e8bd4030 	pop	{r4, r5, lr}
    c820:	e12fff1e 	bx	lr
    c824:	e1a00431 	lsr	r0, r1, r4
    c828:	e1a01005 	mov	r1, r5
    c82c:	e8bd4030 	pop	{r4, r5, lr}
    c830:	e12fff1e 	bx	lr
    c834:	e3340000 	teq	r4, #0, 0
    c838:	e2233601 	eor	r3, r3, #1048576	; 0x100000
    c83c:	02211601 	eoreq	r1, r1, #1048576	; 0x100000
    c840:	02844001 	addeq	r4, r4, #1, 0
    c844:	12455001 	subne	r5, r5, #1, 0
    c848:	eaffff8f 	b	c68c <__adddf3+0x9c>
    c84c:	e1f0cac4 	mvns	ip, r4, asr #21
    c850:	11f0cac5 	mvnsne	ip, r5, asr #21
    c854:	0a00001d 	beq	c8d0 <__adddf3+0x2e0>
    c858:	e1340005 	teq	r4, r5
    c85c:	01300002 	teqeq	r0, r2
    c860:	0a000004 	beq	c878 <__adddf3+0x288>
    c864:	e194c000 	orrs	ip, r4, r0
    c868:	01a01003 	moveq	r1, r3
    c86c:	01a00002 	moveq	r0, r2
    c870:	e8bd4030 	pop	{r4, r5, lr}
    c874:	e12fff1e 	bx	lr
    c878:	e1310003 	teq	r1, r3
    c87c:	13a01000 	movne	r1, #0, 0
    c880:	13a00000 	movne	r0, #0, 0
    c884:	18bd4030 	popne	{r4, r5, lr}
    c888:	112fff1e 	bxne	lr
    c88c:	e1b0caa4 	lsrs	ip, r4, #21
    c890:	1a000004 	bne	c8a8 <__adddf3+0x2b8>
    c894:	e1b00080 	lsls	r0, r0, #1
    c898:	e0b11001 	adcs	r1, r1, r1
    c89c:	23811102 	orrcs	r1, r1, #-2147483648	; 0x80000000
    c8a0:	e8bd4030 	pop	{r4, r5, lr}
    c8a4:	e12fff1e 	bx	lr
    c8a8:	e2944501 	adds	r4, r4, #4194304	; 0x400000
    c8ac:	32811601 	addcc	r1, r1, #1048576	; 0x100000
    c8b0:	38bd4030 	popcc	{r4, r5, lr}
    c8b4:	312fff1e 	bxcc	lr
    c8b8:	e2015102 	and	r5, r1, #-2147483648	; 0x80000000
    c8bc:	e385147f 	orr	r1, r5, #2130706432	; 0x7f000000
    c8c0:	e381160f 	orr	r1, r1, #15728640	; 0xf00000
    c8c4:	e3a00000 	mov	r0, #0, 0
    c8c8:	e8bd4030 	pop	{r4, r5, lr}
    c8cc:	e12fff1e 	bx	lr
    c8d0:	e1f0cac4 	mvns	ip, r4, asr #21
    c8d4:	11a01003 	movne	r1, r3
    c8d8:	11a00002 	movne	r0, r2
    c8dc:	01f0cac5 	mvnseq	ip, r5, asr #21
    c8e0:	11a03001 	movne	r3, r1
    c8e4:	11a02000 	movne	r2, r0
    c8e8:	e1904601 	orrs	r4, r0, r1, lsl #12
    c8ec:	01925603 	orrseq	r5, r2, r3, lsl #12
    c8f0:	01310003 	teqeq	r1, r3
    c8f4:	13811702 	orrne	r1, r1, #524288	; 0x80000
    c8f8:	e8bd4030 	pop	{r4, r5, lr}
    c8fc:	e12fff1e 	bx	lr

0000c900 <__aeabi_ui2d>:
    c900:	e3300000 	teq	r0, #0, 0
    c904:	03a01000 	moveq	r1, #0, 0
    c908:	012fff1e 	bxeq	lr
    c90c:	e92d4030 	push	{r4, r5, lr}
    c910:	e3a04b01 	mov	r4, #1024	; 0x400
    c914:	e2844032 	add	r4, r4, #50, 0	; 0x32
    c918:	e3a05000 	mov	r5, #0, 0
    c91c:	e3a01000 	mov	r1, #0, 0
    c920:	eaffff86 	b	c740 <__adddf3+0x150>

0000c924 <__aeabi_i2d>:
    c924:	e3300000 	teq	r0, #0, 0
    c928:	03a01000 	moveq	r1, #0, 0
    c92c:	012fff1e 	bxeq	lr
    c930:	e92d4030 	push	{r4, r5, lr}
    c934:	e3a04b01 	mov	r4, #1024	; 0x400
    c938:	e2844032 	add	r4, r4, #50, 0	; 0x32
    c93c:	e2105102 	ands	r5, r0, #-2147483648	; 0x80000000
    c940:	42600000 	rsbmi	r0, r0, #0, 0
    c944:	e3a01000 	mov	r1, #0, 0
    c948:	eaffff7c 	b	c740 <__adddf3+0x150>

0000c94c <__aeabi_f2d>:
    c94c:	e1b02080 	lsls	r2, r0, #1
    c950:	e1a011c2 	asr	r1, r2, #3
    c954:	e1a01061 	rrx	r1, r1
    c958:	e1a00e02 	lsl	r0, r2, #28
    c95c:	121234ff 	andsne	r3, r2, #-16777216	; 0xff000000
    c960:	133304ff 	teqne	r3, #-16777216	; 0xff000000
    c964:	1221130e 	eorne	r1, r1, #939524096	; 0x38000000
    c968:	112fff1e 	bxne	lr
    c96c:	e3d224ff 	bics	r2, r2, #-16777216	; 0xff000000
    c970:	012fff1e 	bxeq	lr
    c974:	e33304ff 	teq	r3, #-16777216	; 0xff000000
    c978:	03811702 	orreq	r1, r1, #524288	; 0x80000
    c97c:	012fff1e 	bxeq	lr
    c980:	e92d4030 	push	{r4, r5, lr}
    c984:	e3a04d0e 	mov	r4, #896	; 0x380
    c988:	e2015102 	and	r5, r1, #-2147483648	; 0x80000000
    c98c:	e3c11102 	bic	r1, r1, #-2147483648	; 0x80000000
    c990:	eaffff6a 	b	c740 <__adddf3+0x150>

0000c994 <__aeabi_ul2d>:
    c994:	e1902001 	orrs	r2, r0, r1
    c998:	012fff1e 	bxeq	lr
    c99c:	e92d4030 	push	{r4, r5, lr}
    c9a0:	e3a05000 	mov	r5, #0, 0
    c9a4:	ea000006 	b	c9c4 <__aeabi_l2d+0x1c>

0000c9a8 <__aeabi_l2d>:
    c9a8:	e1902001 	orrs	r2, r0, r1
    c9ac:	012fff1e 	bxeq	lr
    c9b0:	e92d4030 	push	{r4, r5, lr}
    c9b4:	e2115102 	ands	r5, r1, #-2147483648	; 0x80000000
    c9b8:	5a000001 	bpl	c9c4 <__aeabi_l2d+0x1c>
    c9bc:	e2700000 	rsbs	r0, r0, #0, 0
    c9c0:	e2e11000 	rsc	r1, r1, #0, 0
    c9c4:	e3a04b01 	mov	r4, #1024	; 0x400
    c9c8:	e2844032 	add	r4, r4, #50, 0	; 0x32
    c9cc:	e1b0cb21 	lsrs	ip, r1, #22
    c9d0:	0affff42 	beq	c6e0 <__adddf3+0xf0>
    c9d4:	e3a02003 	mov	r2, #3, 0
    c9d8:	e1b0c1ac 	lsrs	ip, ip, #3
    c9dc:	12822003 	addne	r2, r2, #3, 0
    c9e0:	e1b0c1ac 	lsrs	ip, ip, #3
    c9e4:	12822003 	addne	r2, r2, #3, 0
    c9e8:	e08221ac 	add	r2, r2, ip, lsr #3
    c9ec:	e2623020 	rsb	r3, r2, #32, 0
    c9f0:	e1a0c310 	lsl	ip, r0, r3
    c9f4:	e1a00230 	lsr	r0, r0, r2
    c9f8:	e1800311 	orr	r0, r0, r1, lsl r3
    c9fc:	e1a01231 	lsr	r1, r1, r2
    ca00:	e0844002 	add	r4, r4, r2
    ca04:	eaffff35 	b	c6e0 <__adddf3+0xf0>

0000ca08 <__gedf2>:
    ca08:	e3e0c000 	mvn	ip, #0, 0
    ca0c:	ea000002 	b	ca1c <__cmpdf2+0x4>

0000ca10 <__ledf2>:
    ca10:	e3a0c001 	mov	ip, #1, 0
    ca14:	ea000000 	b	ca1c <__cmpdf2+0x4>

0000ca18 <__cmpdf2>:
    ca18:	e3a0c001 	mov	ip, #1, 0
    ca1c:	e52dc004 	push	{ip}		; (str ip, [sp, #-4]!)
    ca20:	e1a0c081 	lsl	ip, r1, #1
    ca24:	e1f0cacc 	mvns	ip, ip, asr #21
    ca28:	e1a0c083 	lsl	ip, r3, #1
    ca2c:	11f0cacc 	mvnsne	ip, ip, asr #21
    ca30:	0a00000e 	beq	ca70 <__cmpdf2+0x58>
    ca34:	e28dd004 	add	sp, sp, #4, 0
    ca38:	e190c081 	orrs	ip, r0, r1, lsl #1
    ca3c:	0192c083 	orrseq	ip, r2, r3, lsl #1
    ca40:	11310003 	teqne	r1, r3
    ca44:	01300002 	teqeq	r0, r2
    ca48:	03a00000 	moveq	r0, #0, 0
    ca4c:	012fff1e 	bxeq	lr
    ca50:	e3700000 	cmn	r0, #0, 0
    ca54:	e1310003 	teq	r1, r3
    ca58:	51510003 	cmppl	r1, r3
    ca5c:	01500002 	cmpeq	r0, r2
    ca60:	21a00fc3 	asrcs	r0, r3, #31
    ca64:	31e00fc3 	mvncc	r0, r3, asr #31
    ca68:	e3800001 	orr	r0, r0, #1, 0
    ca6c:	e12fff1e 	bx	lr
    ca70:	e1a0c081 	lsl	ip, r1, #1
    ca74:	e1f0cacc 	mvns	ip, ip, asr #21
    ca78:	1a000001 	bne	ca84 <__cmpdf2+0x6c>
    ca7c:	e190c601 	orrs	ip, r0, r1, lsl #12
    ca80:	1a000004 	bne	ca98 <__cmpdf2+0x80>
    ca84:	e1a0c083 	lsl	ip, r3, #1
    ca88:	e1f0cacc 	mvns	ip, ip, asr #21
    ca8c:	1affffe8 	bne	ca34 <__cmpdf2+0x1c>
    ca90:	e192c603 	orrs	ip, r2, r3, lsl #12
    ca94:	0affffe6 	beq	ca34 <__cmpdf2+0x1c>
    ca98:	e49d0004 	pop	{r0}		; (ldr r0, [sp], #4)
    ca9c:	e12fff1e 	bx	lr

0000caa0 <__aeabi_cdrcmple>:
    caa0:	e1a0c000 	mov	ip, r0
    caa4:	e1a00002 	mov	r0, r2
    caa8:	e1a0200c 	mov	r2, ip
    caac:	e1a0c001 	mov	ip, r1
    cab0:	e1a01003 	mov	r1, r3
    cab4:	e1a0300c 	mov	r3, ip
    cab8:	eaffffff 	b	cabc <__aeabi_cdcmpeq>

0000cabc <__aeabi_cdcmpeq>:
    cabc:	e92d4001 	push	{r0, lr}
    cac0:	ebffffd4 	bl	ca18 <__cmpdf2>
    cac4:	e3500000 	cmp	r0, #0, 0
    cac8:	43700000 	cmnmi	r0, #0, 0
    cacc:	e8bd4001 	pop	{r0, lr}
    cad0:	e12fff1e 	bx	lr

0000cad4 <__aeabi_dcmpeq>:
    cad4:	e52de008 	str	lr, [sp, #-8]!
    cad8:	ebfffff7 	bl	cabc <__aeabi_cdcmpeq>
    cadc:	03a00001 	moveq	r0, #1, 0
    cae0:	13a00000 	movne	r0, #0, 0
    cae4:	e49de008 	ldr	lr, [sp], #8
    cae8:	e12fff1e 	bx	lr

0000caec <__aeabi_dcmplt>:
    caec:	e52de008 	str	lr, [sp, #-8]!
    caf0:	ebfffff1 	bl	cabc <__aeabi_cdcmpeq>
    caf4:	33a00001 	movcc	r0, #1, 0
    caf8:	23a00000 	movcs	r0, #0, 0
    cafc:	e49de008 	ldr	lr, [sp], #8
    cb00:	e12fff1e 	bx	lr

0000cb04 <__aeabi_dcmple>:
    cb04:	e52de008 	str	lr, [sp, #-8]!
    cb08:	ebffffeb 	bl	cabc <__aeabi_cdcmpeq>
    cb0c:	93a00001 	movls	r0, #1, 0
    cb10:	83a00000 	movhi	r0, #0, 0
    cb14:	e49de008 	ldr	lr, [sp], #8
    cb18:	e12fff1e 	bx	lr

0000cb1c <__aeabi_dcmpge>:
    cb1c:	e52de008 	str	lr, [sp, #-8]!
    cb20:	ebffffde 	bl	caa0 <__aeabi_cdrcmple>
    cb24:	93a00001 	movls	r0, #1, 0
    cb28:	83a00000 	movhi	r0, #0, 0
    cb2c:	e49de008 	ldr	lr, [sp], #8
    cb30:	e12fff1e 	bx	lr

0000cb34 <__aeabi_dcmpgt>:
    cb34:	e52de008 	str	lr, [sp, #-8]!
    cb38:	ebffffd8 	bl	caa0 <__aeabi_cdrcmple>
    cb3c:	33a00001 	movcc	r0, #1, 0
    cb40:	23a00000 	movcs	r0, #0, 0
    cb44:	e49de008 	ldr	lr, [sp], #8
    cb48:	e12fff1e 	bx	lr

0000cb4c <__aeabi_d2uiz>:
    cb4c:	e1b02081 	lsls	r2, r1, #1
    cb50:	2a00000a 	bcs	cb80 <__aeabi_d2uiz+0x34>
    cb54:	e2922602 	adds	r2, r2, #2097152	; 0x200000
    cb58:	2a00000a 	bcs	cb88 <__aeabi_d2uiz+0x3c>
    cb5c:	5a000007 	bpl	cb80 <__aeabi_d2uiz+0x34>
    cb60:	e3e03e3e 	mvn	r3, #992	; 0x3e0
    cb64:	e0532ac2 	subs	r2, r3, r2, asr #21
    cb68:	4a000008 	bmi	cb90 <__aeabi_d2uiz+0x44>
    cb6c:	e1a03581 	lsl	r3, r1, #11
    cb70:	e3833102 	orr	r3, r3, #-2147483648	; 0x80000000
    cb74:	e1833aa0 	orr	r3, r3, r0, lsr #21
    cb78:	e1a00233 	lsr	r0, r3, r2
    cb7c:	e12fff1e 	bx	lr
    cb80:	e3a00000 	mov	r0, #0, 0
    cb84:	e12fff1e 	bx	lr
    cb88:	e1900601 	orrs	r0, r0, r1, lsl #12
    cb8c:	1a000001 	bne	cb98 <__aeabi_d2uiz+0x4c>
    cb90:	e3e00000 	mvn	r0, #0, 0
    cb94:	e12fff1e 	bx	lr
    cb98:	e3a00000 	mov	r0, #0, 0
    cb9c:	e12fff1e 	bx	lr
